ARM GAS  C:\DOCUME~1\student\LOCALS~1\Temp\ccbLgMpg.s 			page 1


   1              		.syntax unified
   2              		.cpu cortex-m3
   3              		.fpu softvfp
   4              		.eabi_attribute 20, 1
   5              		.eabi_attribute 21, 1
   6              		.eabi_attribute 23, 3
   7              		.eabi_attribute 24, 1
   8              		.eabi_attribute 25, 1
   9              		.eabi_attribute 26, 1
  10              		.eabi_attribute 30, 6
  11              		.eabi_attribute 18, 4
  12              		.thumb
  13              		.file	"UART.c"
  20 0000 AE020000 		.text
  20      02005D00 
  20      00000201 
  20      FB0E0D00 
  20      01010101 
  21              	.Ltext0:
  22              		.cfi_sections	.debug_frame
  23              		.global	UART_initVar
  24              		.bss
  25              		.type	UART_initVar, %object
  26              		.size	UART_initVar, 1
  27              	UART_initVar:
  28 0000 00       		.space	1
  29              		.section	.text.UART_Start,"ax",%progbits
  30              		.align	2
  31              		.global	UART_Start
  32              		.thumb
  33              		.thumb_func
  34              		.type	UART_Start, %function
  35              	UART_Start:
  36              	.LFB0:
  37              		.file 1 ".\\Generated_Source\\PSoC5\\UART.c"
   1:.\Generated_Source\PSoC5/UART.c **** /*******************************************************************************
   2:.\Generated_Source\PSoC5/UART.c **** * File Name: UART.c
   3:.\Generated_Source\PSoC5/UART.c **** * Version 2.20
   4:.\Generated_Source\PSoC5/UART.c **** *
   5:.\Generated_Source\PSoC5/UART.c **** * Description:
   6:.\Generated_Source\PSoC5/UART.c **** *  This file provides all API functionality of the UART component
   7:.\Generated_Source\PSoC5/UART.c **** *
   8:.\Generated_Source\PSoC5/UART.c **** * Note:
   9:.\Generated_Source\PSoC5/UART.c **** *
  10:.\Generated_Source\PSoC5/UART.c **** ********************************************************************************
  11:.\Generated_Source\PSoC5/UART.c **** * Copyright 2008-2012, Cypress Semiconductor Corporation.  All rights reserved.
  12:.\Generated_Source\PSoC5/UART.c **** * You may use this file only in accordance with the license, terms, conditions, 
  13:.\Generated_Source\PSoC5/UART.c **** * disclaimers, and limitations in the end user license agreement accompanying 
  14:.\Generated_Source\PSoC5/UART.c **** * the software package with which this file was provided.
  15:.\Generated_Source\PSoC5/UART.c **** *******************************************************************************/
  16:.\Generated_Source\PSoC5/UART.c **** 
ARM GAS  C:\DOCUME~1\student\LOCALS~1\Temp\ccbLgMpg.s 			page 2


  17:.\Generated_Source\PSoC5/UART.c **** #include "UART.h"
  18:.\Generated_Source\PSoC5/UART.c **** #include "CyLib.h"
  19:.\Generated_Source\PSoC5/UART.c **** 
  20:.\Generated_Source\PSoC5/UART.c **** 
  21:.\Generated_Source\PSoC5/UART.c **** /***************************************
  22:.\Generated_Source\PSoC5/UART.c **** * Global data allocation
  23:.\Generated_Source\PSoC5/UART.c **** ***************************************/
  24:.\Generated_Source\PSoC5/UART.c **** 
  25:.\Generated_Source\PSoC5/UART.c **** #if( UART_TX_ENABLED && (UART_TXBUFFERSIZE > UART_FIFO_LENGTH))
  26:.\Generated_Source\PSoC5/UART.c ****     volatile uint8 UART_txBuffer[UART_TXBUFFERSIZE];
  27:.\Generated_Source\PSoC5/UART.c ****     volatile uint8 UART_txBufferRead = 0u;
  28:.\Generated_Source\PSoC5/UART.c ****     uint8 UART_txBufferWrite = 0u;
  29:.\Generated_Source\PSoC5/UART.c **** #endif /* End UART_TX_ENABLED */
  30:.\Generated_Source\PSoC5/UART.c **** #if( ( UART_RX_ENABLED || UART_HD_ENABLED ) && \
  31:.\Generated_Source\PSoC5/UART.c ****      (UART_RXBUFFERSIZE > UART_FIFO_LENGTH) )
  32:.\Generated_Source\PSoC5/UART.c ****     volatile uint8 UART_rxBuffer[UART_RXBUFFERSIZE];
  33:.\Generated_Source\PSoC5/UART.c ****     volatile uint8 UART_rxBufferRead = 0u;
  34:.\Generated_Source\PSoC5/UART.c ****     volatile uint8 UART_rxBufferWrite = 0u;
  35:.\Generated_Source\PSoC5/UART.c ****     volatile uint8 UART_rxBufferLoopDetect = 0u;
  36:.\Generated_Source\PSoC5/UART.c ****     volatile uint8 UART_rxBufferOverflow = 0u;
  37:.\Generated_Source\PSoC5/UART.c ****     #if (UART_RXHW_ADDRESS_ENABLED)
  38:.\Generated_Source\PSoC5/UART.c ****         volatile uint8 UART_rxAddressMode = UART_RXADDRESSMODE;
  39:.\Generated_Source\PSoC5/UART.c ****         volatile uint8 UART_rxAddressDetected = 0u;
  40:.\Generated_Source\PSoC5/UART.c ****     #endif /* End EnableHWAddress */    
  41:.\Generated_Source\PSoC5/UART.c **** #endif /* End UART_RX_ENABLED */
  42:.\Generated_Source\PSoC5/UART.c **** 
  43:.\Generated_Source\PSoC5/UART.c **** 
  44:.\Generated_Source\PSoC5/UART.c **** /***************************************
  45:.\Generated_Source\PSoC5/UART.c **** * Local data allocation
  46:.\Generated_Source\PSoC5/UART.c **** ***************************************/
  47:.\Generated_Source\PSoC5/UART.c **** 
  48:.\Generated_Source\PSoC5/UART.c **** uint8 UART_initVar = 0u;
  49:.\Generated_Source\PSoC5/UART.c **** 
  50:.\Generated_Source\PSoC5/UART.c **** 
  51:.\Generated_Source\PSoC5/UART.c **** /*******************************************************************************
  52:.\Generated_Source\PSoC5/UART.c **** * Function Name: UART_Start
  53:.\Generated_Source\PSoC5/UART.c **** ********************************************************************************
  54:.\Generated_Source\PSoC5/UART.c **** *
  55:.\Generated_Source\PSoC5/UART.c **** * Summary:
  56:.\Generated_Source\PSoC5/UART.c **** *  Initialize and Enable the UART component.
  57:.\Generated_Source\PSoC5/UART.c **** *  Enable the clock input to enable operation.
  58:.\Generated_Source\PSoC5/UART.c **** *
  59:.\Generated_Source\PSoC5/UART.c **** * Parameters:
  60:.\Generated_Source\PSoC5/UART.c **** *  None.
  61:.\Generated_Source\PSoC5/UART.c **** *
  62:.\Generated_Source\PSoC5/UART.c **** * Return:
  63:.\Generated_Source\PSoC5/UART.c **** *  None.
  64:.\Generated_Source\PSoC5/UART.c **** *
  65:.\Generated_Source\PSoC5/UART.c **** * Global variables:
  66:.\Generated_Source\PSoC5/UART.c **** *  The UART_intiVar variable is used to indicate initial 
  67:.\Generated_Source\PSoC5/UART.c **** *  configuration of this component. The variable is initialized to zero (0u) 
  68:.\Generated_Source\PSoC5/UART.c **** *  and set to one (1u) the first time UART_Start() is called. This allows for 
  69:.\Generated_Source\PSoC5/UART.c **** *  component initialization without re-initialization in all subsequent calls 
  70:.\Generated_Source\PSoC5/UART.c **** *  to the UART_Start() routine. 
  71:.\Generated_Source\PSoC5/UART.c **** *
  72:.\Generated_Source\PSoC5/UART.c **** * Reentrant:
  73:.\Generated_Source\PSoC5/UART.c **** *  No.
ARM GAS  C:\DOCUME~1\student\LOCALS~1\Temp\ccbLgMpg.s 			page 3


  74:.\Generated_Source\PSoC5/UART.c **** *
  75:.\Generated_Source\PSoC5/UART.c **** *******************************************************************************/
  76:.\Generated_Source\PSoC5/UART.c **** void UART_Start(void) 
  77:.\Generated_Source\PSoC5/UART.c **** {
  38              		.loc 1 77 0
  39              		.cfi_startproc
  40              		@ args = 0, pretend = 0, frame = 0
  41              		@ frame_needed = 1, uses_anonymous_args = 0
  42 0000 80B5     		push	{r7, lr}
  43              	.LCFI0:
  44              		.cfi_def_cfa_offset 8
  45 0002 00AF     		add	r7, sp, #0
  46              		.cfi_offset 14, -4
  47              		.cfi_offset 7, -8
  48              	.LCFI1:
  49              		.cfi_def_cfa_register 7
  78:.\Generated_Source\PSoC5/UART.c ****     /* If not Initialized then initialize all required hardware and software */
  79:.\Generated_Source\PSoC5/UART.c ****     if(UART_initVar == 0u)
  50              		.loc 1 79 0
  51 0004 40F20003 		movw	r3, #:lower16:UART_initVar
  52 0008 C0F20003 		movt	r3, #:upper16:UART_initVar
  53 000c 1B78     		ldrb	r3, [r3, #0]	@ zero_extendqisi2
  54 000e 002B     		cmp	r3, #0
  55 0010 08D1     		bne	.L2
  80:.\Generated_Source\PSoC5/UART.c ****     {
  81:.\Generated_Source\PSoC5/UART.c ****         UART_Init();
  56              		.loc 1 81 0
  57 0012 FFF7FEFF 		bl	UART_Init
  82:.\Generated_Source\PSoC5/UART.c ****         UART_initVar = 1u;
  58              		.loc 1 82 0
  59 0016 40F20003 		movw	r3, #:lower16:UART_initVar
  60 001a C0F20003 		movt	r3, #:upper16:UART_initVar
  61 001e 4FF00102 		mov	r2, #1
  62 0022 1A70     		strb	r2, [r3, #0]
  63              	.L2:
  83:.\Generated_Source\PSoC5/UART.c ****     }
  84:.\Generated_Source\PSoC5/UART.c ****     UART_Enable();
  64              		.loc 1 84 0
  65 0024 FFF7FEFF 		bl	UART_Enable
  85:.\Generated_Source\PSoC5/UART.c **** }
  66              		.loc 1 85 0
  67 0028 80BD     		pop	{r7, pc}
  68              		.cfi_endproc
  69              	.LFE0:
  70              		.size	UART_Start, .-UART_Start
  71 002a 00BF     		.section	.text.UART_Init,"ax",%progbits
  72              		.align	2
  73              		.global	UART_Init
  74              		.thumb
  75              		.thumb_func
  76              		.type	UART_Init, %function
  77              	UART_Init:
  78              	.LFB1:
  86:.\Generated_Source\PSoC5/UART.c **** 
  87:.\Generated_Source\PSoC5/UART.c **** 
  88:.\Generated_Source\PSoC5/UART.c **** /*******************************************************************************
  89:.\Generated_Source\PSoC5/UART.c **** * Function Name: UART_Init
ARM GAS  C:\DOCUME~1\student\LOCALS~1\Temp\ccbLgMpg.s 			page 4


  90:.\Generated_Source\PSoC5/UART.c **** ********************************************************************************
  91:.\Generated_Source\PSoC5/UART.c **** *
  92:.\Generated_Source\PSoC5/UART.c **** * Summary:
  93:.\Generated_Source\PSoC5/UART.c **** *  Initialize component's parameters to the parameters set by user in the
  94:.\Generated_Source\PSoC5/UART.c **** *  customizer of the component placed onto schematic. Usually called in
  95:.\Generated_Source\PSoC5/UART.c **** *  UART_Start().
  96:.\Generated_Source\PSoC5/UART.c **** *
  97:.\Generated_Source\PSoC5/UART.c **** * Parameters:
  98:.\Generated_Source\PSoC5/UART.c **** *  None.
  99:.\Generated_Source\PSoC5/UART.c **** *
 100:.\Generated_Source\PSoC5/UART.c **** * Return:
 101:.\Generated_Source\PSoC5/UART.c **** *  None.
 102:.\Generated_Source\PSoC5/UART.c **** *
 103:.\Generated_Source\PSoC5/UART.c **** *******************************************************************************/
 104:.\Generated_Source\PSoC5/UART.c **** void UART_Init(void) 
 105:.\Generated_Source\PSoC5/UART.c **** {
  79              		.loc 1 105 0
  80              		.cfi_startproc
  81              		@ args = 0, pretend = 0, frame = 0
  82              		@ frame_needed = 1, uses_anonymous_args = 0
  83              		@ link register save eliminated.
  84 0000 80B4     		push	{r7}
  85              	.LCFI2:
  86              		.cfi_def_cfa_offset 4
  87 0002 00AF     		add	r7, sp, #0
  88              		.cfi_offset 7, -4
  89              	.LCFI3:
  90              		.cfi_def_cfa_register 7
 106:.\Generated_Source\PSoC5/UART.c ****     #if(UART_RX_ENABLED || UART_HD_ENABLED)
 107:.\Generated_Source\PSoC5/UART.c **** 
 108:.\Generated_Source\PSoC5/UART.c ****         #if(UART_RX_INTERRUPT_ENABLED && (UART_RXBUFFERSIZE > UART_FIFO_LENGTH))
 109:.\Generated_Source\PSoC5/UART.c ****             /* Set the RX Interrupt. */
 110:.\Generated_Source\PSoC5/UART.c ****             CyIntSetVector(UART_RX_VECT_NUM,   UART_RXISR);
 111:.\Generated_Source\PSoC5/UART.c ****             CyIntSetPriority(UART_RX_VECT_NUM, UART_RX_PRIOR_NUM);
 112:.\Generated_Source\PSoC5/UART.c ****         #endif /* End UART_RX_INTERRUPT_ENABLED */
 113:.\Generated_Source\PSoC5/UART.c **** 
 114:.\Generated_Source\PSoC5/UART.c ****         #if (UART_RXHW_ADDRESS_ENABLED)
 115:.\Generated_Source\PSoC5/UART.c ****             UART_SetRxAddressMode(UART_RXAddressMode);
 116:.\Generated_Source\PSoC5/UART.c ****             UART_SetRxAddress1(UART_RXHWADDRESS1);
 117:.\Generated_Source\PSoC5/UART.c ****             UART_SetRxAddress2(UART_RXHWADDRESS2);
 118:.\Generated_Source\PSoC5/UART.c ****         #endif /* End UART_RXHW_ADDRESS_ENABLED */
 119:.\Generated_Source\PSoC5/UART.c **** 
 120:.\Generated_Source\PSoC5/UART.c ****         /* Configure the Initial RX interrupt mask */
 121:.\Generated_Source\PSoC5/UART.c ****         UART_RXSTATUS_MASK_REG  = UART_INIT_RX_INTERRUPTS_MASK;
  91              		.loc 1 121 0
  92 0004 46F28F43 		movw	r3, #:lower16:1073767567
  93 0008 C4F20003 		movt	r3, #:upper16:1073767567
  94 000c 4FF02002 		mov	r2, #32
  95 0010 1A70     		strb	r2, [r3, #0]
 122:.\Generated_Source\PSoC5/UART.c ****     #endif /* End UART_RX_ENABLED || UART_HD_ENABLED*/
 123:.\Generated_Source\PSoC5/UART.c **** 
 124:.\Generated_Source\PSoC5/UART.c ****     #if(UART_TX_ENABLED)
 125:.\Generated_Source\PSoC5/UART.c ****         #if(UART_TX_INTERRUPT_ENABLED && (UART_TXBUFFERSIZE > UART_FIFO_LENGTH))
 126:.\Generated_Source\PSoC5/UART.c ****             /* Set the TX Interrupt. */
 127:.\Generated_Source\PSoC5/UART.c ****             CyIntSetVector(UART_TX_VECT_NUM,   UART_TXISR);
 128:.\Generated_Source\PSoC5/UART.c ****             CyIntSetPriority(UART_TX_VECT_NUM, UART_TX_PRIOR_NUM);
 129:.\Generated_Source\PSoC5/UART.c ****         #endif /* End UART_TX_INTERRUPT_ENABLED */
ARM GAS  C:\DOCUME~1\student\LOCALS~1\Temp\ccbLgMpg.s 			page 5


 130:.\Generated_Source\PSoC5/UART.c **** 
 131:.\Generated_Source\PSoC5/UART.c ****         /* Write Counter Value for TX Bit Clk Generator*/
 132:.\Generated_Source\PSoC5/UART.c ****         #if(UART_TXCLKGEN_DP)
 133:.\Generated_Source\PSoC5/UART.c ****             UART_TXBITCLKGEN_CTR_REG = UART_BIT_CENTER;
  96              		.loc 1 133 0
  97 0012 46F22A43 		movw	r3, #:lower16:1073767466
  98 0016 C4F20003 		movt	r3, #:upper16:1073767466
  99 001a 4FF00702 		mov	r2, #7
 100 001e 1A70     		strb	r2, [r3, #0]
 134:.\Generated_Source\PSoC5/UART.c ****             UART_TXBITCLKTX_COMPLETE_REG = (UART_NUMBER_OF_DATA_BITS + \
 101              		.loc 1 134 0
 102 0020 46F23A43 		movw	r3, #:lower16:1073767482
 103 0024 C4F20003 		movt	r3, #:upper16:1073767482
 104 0028 4FF04802 		mov	r2, #72
 105 002c 1A70     		strb	r2, [r3, #0]
 135:.\Generated_Source\PSoC5/UART.c ****                                                     UART_NUMBER_OF_START_BIT) * \
 136:.\Generated_Source\PSoC5/UART.c ****                                                     UART_OVER_SAMPLE_COUNT;
 137:.\Generated_Source\PSoC5/UART.c ****         #else
 138:.\Generated_Source\PSoC5/UART.c ****             UART_TXBITCTR_COUNTER_REG = (UART_NUMBER_OF_DATA_BITS + \
 139:.\Generated_Source\PSoC5/UART.c ****                                                     UART_NUMBER_OF_START_BIT) * \
 140:.\Generated_Source\PSoC5/UART.c ****                                                     UART_OVER_SAMPLE_8;
 141:.\Generated_Source\PSoC5/UART.c ****         #endif /* End UART_TXCLKGEN_DP */
 142:.\Generated_Source\PSoC5/UART.c **** 
 143:.\Generated_Source\PSoC5/UART.c ****         /* Configure the Initial TX interrupt mask */
 144:.\Generated_Source\PSoC5/UART.c ****         #if(UART_TX_INTERRUPT_ENABLED && (UART_TXBUFFERSIZE > UART_FIFO_LENGTH))
 145:.\Generated_Source\PSoC5/UART.c ****             UART_TXSTATUS_MASK_REG = UART_TX_STS_FIFO_EMPTY;
 146:.\Generated_Source\PSoC5/UART.c ****         #else
 147:.\Generated_Source\PSoC5/UART.c ****             UART_TXSTATUS_MASK_REG = UART_INIT_TX_INTERRUPTS_MASK;
 106              		.loc 1 147 0
 107 002e 46F28E43 		movw	r3, #:lower16:1073767566
 108 0032 C4F20003 		movt	r3, #:upper16:1073767566
 109 0036 4FF00002 		mov	r2, #0
 110 003a 1A70     		strb	r2, [r3, #0]
 148:.\Generated_Source\PSoC5/UART.c ****         #endif /*End UART_TX_INTERRUPT_ENABLED*/
 149:.\Generated_Source\PSoC5/UART.c ****         
 150:.\Generated_Source\PSoC5/UART.c ****     #endif /* End UART_TX_ENABLED */
 151:.\Generated_Source\PSoC5/UART.c **** 
 152:.\Generated_Source\PSoC5/UART.c ****     #if(UART_PARITY_TYPE_SW)  /* Write Parity to Control Register */
 153:.\Generated_Source\PSoC5/UART.c ****         UART_WriteControlRegister( \
 154:.\Generated_Source\PSoC5/UART.c ****             (UART_ReadControlRegister() & ~UART_CTRL_PARITY_TYPE_MASK) | \
 155:.\Generated_Source\PSoC5/UART.c ****             (UART_PARITY_TYPE << UART_CTRL_PARITY_TYPE0_SHIFT) );
 156:.\Generated_Source\PSoC5/UART.c ****     #endif /* End UART_PARITY_TYPE_SW */
 157:.\Generated_Source\PSoC5/UART.c **** }
 111              		.loc 1 157 0
 112 003c BD46     		mov	sp, r7
 113 003e 80BC     		pop	{r7}
 114 0040 7047     		bx	lr
 115              		.cfi_endproc
 116              	.LFE1:
 117              		.size	UART_Init, .-UART_Init
 118 0042 00BF     		.section	.text.UART_Enable,"ax",%progbits
 119              		.align	2
 120              		.global	UART_Enable
 121              		.thumb
 122              		.thumb_func
 123              		.type	UART_Enable, %function
 124              	UART_Enable:
ARM GAS  C:\DOCUME~1\student\LOCALS~1\Temp\ccbLgMpg.s 			page 6


 125              	.LFB2:
 158:.\Generated_Source\PSoC5/UART.c **** 
 159:.\Generated_Source\PSoC5/UART.c **** 
 160:.\Generated_Source\PSoC5/UART.c **** /*******************************************************************************
 161:.\Generated_Source\PSoC5/UART.c **** * Function Name: UART_Enable
 162:.\Generated_Source\PSoC5/UART.c **** ********************************************************************************
 163:.\Generated_Source\PSoC5/UART.c **** *
 164:.\Generated_Source\PSoC5/UART.c **** * Summary:
 165:.\Generated_Source\PSoC5/UART.c **** *  Enables the UART block operation
 166:.\Generated_Source\PSoC5/UART.c **** *
 167:.\Generated_Source\PSoC5/UART.c **** * Parameters:
 168:.\Generated_Source\PSoC5/UART.c **** *  None.
 169:.\Generated_Source\PSoC5/UART.c **** *
 170:.\Generated_Source\PSoC5/UART.c **** * Return:
 171:.\Generated_Source\PSoC5/UART.c **** *  None.
 172:.\Generated_Source\PSoC5/UART.c **** *
 173:.\Generated_Source\PSoC5/UART.c **** * Global Variables:
 174:.\Generated_Source\PSoC5/UART.c **** *  UART_rxAddressDetected - set to initial state (0).
 175:.\Generated_Source\PSoC5/UART.c **** *
 176:.\Generated_Source\PSoC5/UART.c **** *******************************************************************************/
 177:.\Generated_Source\PSoC5/UART.c **** void UART_Enable(void) 
 178:.\Generated_Source\PSoC5/UART.c **** {
 126              		.loc 1 178 0
 127              		.cfi_startproc
 128              		@ args = 0, pretend = 0, frame = 8
 129              		@ frame_needed = 1, uses_anonymous_args = 0
 130 0000 80B5     		push	{r7, lr}
 131              	.LCFI4:
 132              		.cfi_def_cfa_offset 8
 133 0002 82B0     		sub	sp, sp, #8
 134              	.LCFI5:
 135              		.cfi_def_cfa_offset 16
 136 0004 00AF     		add	r7, sp, #0
 137              		.cfi_offset 14, -4
 138              		.cfi_offset 7, -8
 139              	.LCFI6:
 140              		.cfi_def_cfa_register 7
 179:.\Generated_Source\PSoC5/UART.c ****     uint8 enableInterrupts;
 180:.\Generated_Source\PSoC5/UART.c ****     enableInterrupts = CyEnterCriticalSection();
 141              		.loc 1 180 0
 142 0006 FFF7FEFF 		bl	CyEnterCriticalSection
 143 000a 0346     		mov	r3, r0
 144 000c FB71     		strb	r3, [r7, #7]
 181:.\Generated_Source\PSoC5/UART.c ****     
 182:.\Generated_Source\PSoC5/UART.c ****     #if(UART_RX_ENABLED || UART_HD_ENABLED)
 183:.\Generated_Source\PSoC5/UART.c ****         /*RX Counter (Count7) Enable */
 184:.\Generated_Source\PSoC5/UART.c ****         UART_RXBITCTR_CONTROL_REG |= UART_CNTR_ENABLE;
 145              		.loc 1 184 0
 146 000e 46F29C43 		movw	r3, #:lower16:1073767580
 147 0012 C4F20003 		movt	r3, #:upper16:1073767580
 148 0016 46F29C42 		movw	r2, #:lower16:1073767580
 149 001a C4F20002 		movt	r2, #:upper16:1073767580
 150 001e 1278     		ldrb	r2, [r2, #0]
 151 0020 D2B2     		uxtb	r2, r2
 152 0022 42F02002 		orr	r2, r2, #32
 153 0026 D2B2     		uxtb	r2, r2
 154 0028 1A70     		strb	r2, [r3, #0]
ARM GAS  C:\DOCUME~1\student\LOCALS~1\Temp\ccbLgMpg.s 			page 7


 185:.\Generated_Source\PSoC5/UART.c ****         /* Enable the RX Interrupt. */
 186:.\Generated_Source\PSoC5/UART.c ****         UART_RXSTATUS_ACTL_REG  |= UART_INT_ENABLE;
 155              		.loc 1 186 0
 156 002a 46F29F43 		movw	r3, #:lower16:1073767583
 157 002e C4F20003 		movt	r3, #:upper16:1073767583
 158 0032 46F29F42 		movw	r2, #:lower16:1073767583
 159 0036 C4F20002 		movt	r2, #:upper16:1073767583
 160 003a 1278     		ldrb	r2, [r2, #0]
 161 003c D2B2     		uxtb	r2, r2
 162 003e 42F01002 		orr	r2, r2, #16
 163 0042 D2B2     		uxtb	r2, r2
 164 0044 1A70     		strb	r2, [r3, #0]
 187:.\Generated_Source\PSoC5/UART.c ****         #if(UART_RX_INTERRUPT_ENABLED && (UART_RXBUFFERSIZE > UART_FIFO_LENGTH))
 188:.\Generated_Source\PSoC5/UART.c ****             CyIntEnable(UART_RX_VECT_NUM);
 189:.\Generated_Source\PSoC5/UART.c ****             #if (UART_RXHW_ADDRESS_ENABLED)
 190:.\Generated_Source\PSoC5/UART.c ****                 UART_rxAddressDetected = 0u;
 191:.\Generated_Source\PSoC5/UART.c ****             #endif /* End UART_RXHW_ADDRESS_ENABLED */
 192:.\Generated_Source\PSoC5/UART.c ****         #endif /* End UART_RX_INTERRUPT_ENABLED */
 193:.\Generated_Source\PSoC5/UART.c ****     #endif /* End UART_RX_ENABLED || UART_HD_ENABLED*/
 194:.\Generated_Source\PSoC5/UART.c **** 
 195:.\Generated_Source\PSoC5/UART.c ****     #if(UART_TX_ENABLED)
 196:.\Generated_Source\PSoC5/UART.c ****         /*TX Counter (DP/Count7) Enable */
 197:.\Generated_Source\PSoC5/UART.c ****         #if(!UART_TXCLKGEN_DP)
 198:.\Generated_Source\PSoC5/UART.c ****             UART_TXBITCTR_CONTROL_REG |= UART_CNTR_ENABLE;
 199:.\Generated_Source\PSoC5/UART.c ****         #endif /* End UART_TXCLKGEN_DP */
 200:.\Generated_Source\PSoC5/UART.c ****         /* Enable the TX Interrupt. */
 201:.\Generated_Source\PSoC5/UART.c ****         UART_TXSTATUS_ACTL_REG |= UART_INT_ENABLE;
 165              		.loc 1 201 0
 166 0046 46F29E43 		movw	r3, #:lower16:1073767582
 167 004a C4F20003 		movt	r3, #:upper16:1073767582
 168 004e 46F29E42 		movw	r2, #:lower16:1073767582
 169 0052 C4F20002 		movt	r2, #:upper16:1073767582
 170 0056 1278     		ldrb	r2, [r2, #0]
 171 0058 D2B2     		uxtb	r2, r2
 172 005a 42F01002 		orr	r2, r2, #16
 173 005e D2B2     		uxtb	r2, r2
 174 0060 1A70     		strb	r2, [r3, #0]
 202:.\Generated_Source\PSoC5/UART.c ****         #if(UART_TX_INTERRUPT_ENABLED && (UART_TXBUFFERSIZE > UART_FIFO_LENGTH))
 203:.\Generated_Source\PSoC5/UART.c ****             CyIntEnable(UART_TX_VECT_NUM);
 204:.\Generated_Source\PSoC5/UART.c ****         #endif /* End UART_TX_INTERRUPT_ENABLED*/
 205:.\Generated_Source\PSoC5/UART.c ****      #endif /* End UART_TX_ENABLED */
 206:.\Generated_Source\PSoC5/UART.c **** 
 207:.\Generated_Source\PSoC5/UART.c ****     #if(UART_INTERNAL_CLOCK_USED)
 208:.\Generated_Source\PSoC5/UART.c ****         /* Set the bit to enable the clock. */
 209:.\Generated_Source\PSoC5/UART.c ****         UART_INTCLOCK_CLKEN_REG |= UART_INTCLOCK_CLKEN_MASK;
 175              		.loc 1 209 0
 176 0062 44F2A233 		movw	r3, #:lower16:1073759138
 177 0066 C4F20003 		movt	r3, #:upper16:1073759138
 178 006a 44F2A232 		movw	r2, #:lower16:1073759138
 179 006e C4F20002 		movt	r2, #:upper16:1073759138
 180 0072 1278     		ldrb	r2, [r2, #0]
 181 0074 D2B2     		uxtb	r2, r2
 182 0076 42F00202 		orr	r2, r2, #2
 183 007a D2B2     		uxtb	r2, r2
 184 007c 1A70     		strb	r2, [r3, #0]
 210:.\Generated_Source\PSoC5/UART.c ****     #endif /* End UART_INTERNAL_CLOCK_USED */
 211:.\Generated_Source\PSoC5/UART.c ****     
ARM GAS  C:\DOCUME~1\student\LOCALS~1\Temp\ccbLgMpg.s 			page 8


 212:.\Generated_Source\PSoC5/UART.c ****     CyExitCriticalSection(enableInterrupts);
 185              		.loc 1 212 0
 186 007e FB79     		ldrb	r3, [r7, #7]	@ zero_extendqisi2
 187 0080 1846     		mov	r0, r3
 188 0082 FFF7FEFF 		bl	CyExitCriticalSection
 213:.\Generated_Source\PSoC5/UART.c **** }
 189              		.loc 1 213 0
 190 0086 07F10807 		add	r7, r7, #8
 191 008a BD46     		mov	sp, r7
 192 008c 80BD     		pop	{r7, pc}
 193              		.cfi_endproc
 194              	.LFE2:
 195              		.size	UART_Enable, .-UART_Enable
 196 008e 00BF     		.section	.text.UART_Stop,"ax",%progbits
 197              		.align	2
 198              		.global	UART_Stop
 199              		.thumb
 200              		.thumb_func
 201              		.type	UART_Stop, %function
 202              	UART_Stop:
 203              	.LFB3:
 214:.\Generated_Source\PSoC5/UART.c **** 
 215:.\Generated_Source\PSoC5/UART.c **** 
 216:.\Generated_Source\PSoC5/UART.c **** /*******************************************************************************
 217:.\Generated_Source\PSoC5/UART.c **** * Function Name: UART_Stop
 218:.\Generated_Source\PSoC5/UART.c **** ********************************************************************************
 219:.\Generated_Source\PSoC5/UART.c **** *
 220:.\Generated_Source\PSoC5/UART.c **** * Summary:
 221:.\Generated_Source\PSoC5/UART.c **** *  Disable the UART component
 222:.\Generated_Source\PSoC5/UART.c **** *
 223:.\Generated_Source\PSoC5/UART.c **** * Parameters:
 224:.\Generated_Source\PSoC5/UART.c **** *  None.
 225:.\Generated_Source\PSoC5/UART.c **** *
 226:.\Generated_Source\PSoC5/UART.c **** * Return:
 227:.\Generated_Source\PSoC5/UART.c **** *  None.
 228:.\Generated_Source\PSoC5/UART.c **** *
 229:.\Generated_Source\PSoC5/UART.c **** *******************************************************************************/
 230:.\Generated_Source\PSoC5/UART.c **** void UART_Stop(void) 
 231:.\Generated_Source\PSoC5/UART.c **** {
 204              		.loc 1 231 0
 205              		.cfi_startproc
 206              		@ args = 0, pretend = 0, frame = 8
 207              		@ frame_needed = 1, uses_anonymous_args = 0
 208 0000 80B5     		push	{r7, lr}
 209              	.LCFI7:
 210              		.cfi_def_cfa_offset 8
 211 0002 82B0     		sub	sp, sp, #8
 212              	.LCFI8:
 213              		.cfi_def_cfa_offset 16
 214 0004 00AF     		add	r7, sp, #0
 215              		.cfi_offset 14, -4
 216              		.cfi_offset 7, -8
 217              	.LCFI9:
 218              		.cfi_def_cfa_register 7
 232:.\Generated_Source\PSoC5/UART.c ****     uint8 enableInterrupts;
 233:.\Generated_Source\PSoC5/UART.c ****     enableInterrupts = CyEnterCriticalSection();
 219              		.loc 1 233 0
ARM GAS  C:\DOCUME~1\student\LOCALS~1\Temp\ccbLgMpg.s 			page 9


 220 0006 FFF7FEFF 		bl	CyEnterCriticalSection
 221 000a 0346     		mov	r3, r0
 222 000c FB71     		strb	r3, [r7, #7]
 234:.\Generated_Source\PSoC5/UART.c **** 
 235:.\Generated_Source\PSoC5/UART.c ****     /*Write Bit Counter Disable */
 236:.\Generated_Source\PSoC5/UART.c ****     #if(UART_RX_ENABLED || UART_HD_ENABLED)
 237:.\Generated_Source\PSoC5/UART.c ****         UART_RXBITCTR_CONTROL_REG &= ~UART_CNTR_ENABLE;
 223              		.loc 1 237 0
 224 000e 46F29C43 		movw	r3, #:lower16:1073767580
 225 0012 C4F20003 		movt	r3, #:upper16:1073767580
 226 0016 46F29C42 		movw	r2, #:lower16:1073767580
 227 001a C4F20002 		movt	r2, #:upper16:1073767580
 228 001e 1278     		ldrb	r2, [r2, #0]
 229 0020 D2B2     		uxtb	r2, r2
 230 0022 02F0DF02 		and	r2, r2, #223
 231 0026 1A70     		strb	r2, [r3, #0]
 238:.\Generated_Source\PSoC5/UART.c ****     #endif /* End UART_RX_ENABLED */
 239:.\Generated_Source\PSoC5/UART.c **** 
 240:.\Generated_Source\PSoC5/UART.c ****     #if(UART_TX_ENABLED)
 241:.\Generated_Source\PSoC5/UART.c ****         #if(!UART_TXCLKGEN_DP)
 242:.\Generated_Source\PSoC5/UART.c ****             UART_TXBITCTR_CONTROL_REG &= ~UART_CNTR_ENABLE;
 243:.\Generated_Source\PSoC5/UART.c ****         #endif /* End UART_TXCLKGEN_DP */
 244:.\Generated_Source\PSoC5/UART.c ****     #endif /* UART_TX_ENABLED */
 245:.\Generated_Source\PSoC5/UART.c **** 
 246:.\Generated_Source\PSoC5/UART.c ****     #if(UART_INTERNAL_CLOCK_USED)
 247:.\Generated_Source\PSoC5/UART.c ****         /* Clear the bit to enable the clock. */
 248:.\Generated_Source\PSoC5/UART.c ****         UART_INTCLOCK_CLKEN_REG &= ~UART_INTCLOCK_CLKEN_MASK;
 232              		.loc 1 248 0
 233 0028 44F2A233 		movw	r3, #:lower16:1073759138
 234 002c C4F20003 		movt	r3, #:upper16:1073759138
 235 0030 44F2A232 		movw	r2, #:lower16:1073759138
 236 0034 C4F20002 		movt	r2, #:upper16:1073759138
 237 0038 1278     		ldrb	r2, [r2, #0]
 238 003a D2B2     		uxtb	r2, r2
 239 003c 02F0FD02 		and	r2, r2, #253
 240 0040 1A70     		strb	r2, [r3, #0]
 249:.\Generated_Source\PSoC5/UART.c ****     #endif /* End UART_INTERNAL_CLOCK_USED */
 250:.\Generated_Source\PSoC5/UART.c ****     
 251:.\Generated_Source\PSoC5/UART.c ****     /*Disable internal interrupt component*/
 252:.\Generated_Source\PSoC5/UART.c ****     #if(UART_RX_ENABLED || UART_HD_ENABLED)
 253:.\Generated_Source\PSoC5/UART.c ****         UART_RXSTATUS_ACTL_REG  &= ~UART_INT_ENABLE;
 241              		.loc 1 253 0
 242 0042 46F29F43 		movw	r3, #:lower16:1073767583
 243 0046 C4F20003 		movt	r3, #:upper16:1073767583
 244 004a 46F29F42 		movw	r2, #:lower16:1073767583
 245 004e C4F20002 		movt	r2, #:upper16:1073767583
 246 0052 1278     		ldrb	r2, [r2, #0]
 247 0054 D2B2     		uxtb	r2, r2
 248 0056 02F0EF02 		and	r2, r2, #239
 249 005a 1A70     		strb	r2, [r3, #0]
 254:.\Generated_Source\PSoC5/UART.c ****         #if(UART_RX_INTERRUPT_ENABLED && (UART_RXBUFFERSIZE > UART_FIFO_LENGTH))
 255:.\Generated_Source\PSoC5/UART.c ****             UART_DisableRxInt();
 256:.\Generated_Source\PSoC5/UART.c ****         #endif /* End UART_RX_INTERRUPT_ENABLED */
 257:.\Generated_Source\PSoC5/UART.c ****     #endif /* End UART_RX_ENABLED */
 258:.\Generated_Source\PSoC5/UART.c ****     
 259:.\Generated_Source\PSoC5/UART.c ****     #if(UART_TX_ENABLED)
 260:.\Generated_Source\PSoC5/UART.c ****         UART_TXSTATUS_ACTL_REG &= ~UART_INT_ENABLE;
ARM GAS  C:\DOCUME~1\student\LOCALS~1\Temp\ccbLgMpg.s 			page 10


 250              		.loc 1 260 0
 251 005c 46F29E43 		movw	r3, #:lower16:1073767582
 252 0060 C4F20003 		movt	r3, #:upper16:1073767582
 253 0064 46F29E42 		movw	r2, #:lower16:1073767582
 254 0068 C4F20002 		movt	r2, #:upper16:1073767582
 255 006c 1278     		ldrb	r2, [r2, #0]
 256 006e D2B2     		uxtb	r2, r2
 257 0070 02F0EF02 		and	r2, r2, #239
 258 0074 1A70     		strb	r2, [r3, #0]
 261:.\Generated_Source\PSoC5/UART.c ****         #if(UART_TX_INTERRUPT_ENABLED && (UART_TXBUFFERSIZE > UART_FIFO_LENGTH))
 262:.\Generated_Source\PSoC5/UART.c ****             UART_DisableTxInt();
 263:.\Generated_Source\PSoC5/UART.c ****         #endif /* End UART_TX_INTERRUPT_ENABLED */
 264:.\Generated_Source\PSoC5/UART.c ****     #endif /* End UART_TX_ENABLED */
 265:.\Generated_Source\PSoC5/UART.c **** 
 266:.\Generated_Source\PSoC5/UART.c ****     CyExitCriticalSection(enableInterrupts);
 259              		.loc 1 266 0
 260 0076 FB79     		ldrb	r3, [r7, #7]	@ zero_extendqisi2
 261 0078 1846     		mov	r0, r3
 262 007a FFF7FEFF 		bl	CyExitCriticalSection
 267:.\Generated_Source\PSoC5/UART.c **** }
 263              		.loc 1 267 0
 264 007e 07F10807 		add	r7, r7, #8
 265 0082 BD46     		mov	sp, r7
 266 0084 80BD     		pop	{r7, pc}
 267              		.cfi_endproc
 268              	.LFE3:
 269              		.size	UART_Stop, .-UART_Stop
 270 0086 00BF     		.section	.text.UART_ReadControlRegister,"ax",%progbits
 271              		.align	2
 272              		.global	UART_ReadControlRegister
 273              		.thumb
 274              		.thumb_func
 275              		.type	UART_ReadControlRegister, %function
 276              	UART_ReadControlRegister:
 277              	.LFB4:
 268:.\Generated_Source\PSoC5/UART.c **** 
 269:.\Generated_Source\PSoC5/UART.c **** 
 270:.\Generated_Source\PSoC5/UART.c **** /*******************************************************************************
 271:.\Generated_Source\PSoC5/UART.c **** * Function Name: UART_ReadControlRegister
 272:.\Generated_Source\PSoC5/UART.c **** ********************************************************************************
 273:.\Generated_Source\PSoC5/UART.c **** *
 274:.\Generated_Source\PSoC5/UART.c **** * Summary:
 275:.\Generated_Source\PSoC5/UART.c **** *  Read the current state of the control register
 276:.\Generated_Source\PSoC5/UART.c **** *
 277:.\Generated_Source\PSoC5/UART.c **** * Parameters:
 278:.\Generated_Source\PSoC5/UART.c **** *  None.
 279:.\Generated_Source\PSoC5/UART.c **** *
 280:.\Generated_Source\PSoC5/UART.c **** * Return:
 281:.\Generated_Source\PSoC5/UART.c **** *  Current state of the control register.
 282:.\Generated_Source\PSoC5/UART.c **** *
 283:.\Generated_Source\PSoC5/UART.c **** *******************************************************************************/
 284:.\Generated_Source\PSoC5/UART.c **** uint8 UART_ReadControlRegister(void) 
 285:.\Generated_Source\PSoC5/UART.c **** {
 278              		.loc 1 285 0
 279              		.cfi_startproc
 280              		@ args = 0, pretend = 0, frame = 0
 281              		@ frame_needed = 1, uses_anonymous_args = 0
ARM GAS  C:\DOCUME~1\student\LOCALS~1\Temp\ccbLgMpg.s 			page 11


 282              		@ link register save eliminated.
 283 0000 80B4     		push	{r7}
 284              	.LCFI10:
 285              		.cfi_def_cfa_offset 4
 286 0002 00AF     		add	r7, sp, #0
 287              		.cfi_offset 7, -4
 288              	.LCFI11:
 289              		.cfi_def_cfa_register 7
 286:.\Generated_Source\PSoC5/UART.c ****     #if( UART_CONTROL_REG_REMOVED )
 287:.\Generated_Source\PSoC5/UART.c ****         return(0u);
 290              		.loc 1 287 0
 291 0004 4FF00003 		mov	r3, #0
 288:.\Generated_Source\PSoC5/UART.c ****     #else
 289:.\Generated_Source\PSoC5/UART.c ****         return(UART_CONTROL_REG);
 290:.\Generated_Source\PSoC5/UART.c ****     #endif /* End UART_CONTROL_REG_REMOVED */
 291:.\Generated_Source\PSoC5/UART.c **** }
 292              		.loc 1 291 0
 293 0008 1846     		mov	r0, r3
 294 000a BD46     		mov	sp, r7
 295 000c 80BC     		pop	{r7}
 296 000e 7047     		bx	lr
 297              		.cfi_endproc
 298              	.LFE4:
 299              		.size	UART_ReadControlRegister, .-UART_ReadControlRegister
 300              		.section	.text.UART_WriteControlRegister,"ax",%progbits
 301              		.align	2
 302              		.global	UART_WriteControlRegister
 303              		.thumb
 304              		.thumb_func
 305              		.type	UART_WriteControlRegister, %function
 306              	UART_WriteControlRegister:
 307              	.LFB5:
 292:.\Generated_Source\PSoC5/UART.c **** 
 293:.\Generated_Source\PSoC5/UART.c **** 
 294:.\Generated_Source\PSoC5/UART.c **** /*******************************************************************************
 295:.\Generated_Source\PSoC5/UART.c **** * Function Name: UART_WriteControlRegister
 296:.\Generated_Source\PSoC5/UART.c **** ********************************************************************************
 297:.\Generated_Source\PSoC5/UART.c **** *
 298:.\Generated_Source\PSoC5/UART.c **** * Summary:
 299:.\Generated_Source\PSoC5/UART.c **** *  Writes an 8-bit value into the control register
 300:.\Generated_Source\PSoC5/UART.c **** *
 301:.\Generated_Source\PSoC5/UART.c **** * Parameters:
 302:.\Generated_Source\PSoC5/UART.c **** *  control:  control register value
 303:.\Generated_Source\PSoC5/UART.c **** *
 304:.\Generated_Source\PSoC5/UART.c **** * Return:
 305:.\Generated_Source\PSoC5/UART.c **** *  None.
 306:.\Generated_Source\PSoC5/UART.c **** *
 307:.\Generated_Source\PSoC5/UART.c **** *******************************************************************************/
 308:.\Generated_Source\PSoC5/UART.c **** void  UART_WriteControlRegister(uint8 control) 
 309:.\Generated_Source\PSoC5/UART.c **** {
 308              		.loc 1 309 0
 309              		.cfi_startproc
 310              		@ args = 0, pretend = 0, frame = 8
 311              		@ frame_needed = 1, uses_anonymous_args = 0
 312              		@ link register save eliminated.
 313 0000 80B4     		push	{r7}
 314              	.LCFI12:
ARM GAS  C:\DOCUME~1\student\LOCALS~1\Temp\ccbLgMpg.s 			page 12


 315              		.cfi_def_cfa_offset 4
 316 0002 83B0     		sub	sp, sp, #12
 317              	.LCFI13:
 318              		.cfi_def_cfa_offset 16
 319 0004 00AF     		add	r7, sp, #0
 320              		.cfi_offset 7, -4
 321              	.LCFI14:
 322              		.cfi_def_cfa_register 7
 323 0006 0346     		mov	r3, r0
 324 0008 FB71     		strb	r3, [r7, #7]
 310:.\Generated_Source\PSoC5/UART.c ****     #if( UART_CONTROL_REG_REMOVED )
 311:.\Generated_Source\PSoC5/UART.c ****         control = control;      /* Reassigning to release compiler warning */ 
 312:.\Generated_Source\PSoC5/UART.c ****     #else
 313:.\Generated_Source\PSoC5/UART.c ****        UART_CONTROL_REG = control;
 314:.\Generated_Source\PSoC5/UART.c ****     #endif /* End UART_CONTROL_REG_REMOVED */
 315:.\Generated_Source\PSoC5/UART.c **** }
 325              		.loc 1 315 0
 326 000a 07F10C07 		add	r7, r7, #12
 327 000e BD46     		mov	sp, r7
 328 0010 80BC     		pop	{r7}
 329 0012 7047     		bx	lr
 330              		.cfi_endproc
 331              	.LFE5:
 332              		.size	UART_WriteControlRegister, .-UART_WriteControlRegister
 333              		.section	.text.UART_SetRxInterruptMode,"ax",%progbits
 334              		.align	2
 335              		.global	UART_SetRxInterruptMode
 336              		.thumb
 337              		.thumb_func
 338              		.type	UART_SetRxInterruptMode, %function
 339              	UART_SetRxInterruptMode:
 340              	.LFB6:
 316:.\Generated_Source\PSoC5/UART.c **** 
 317:.\Generated_Source\PSoC5/UART.c **** 
 318:.\Generated_Source\PSoC5/UART.c **** #if(UART_RX_ENABLED || UART_HD_ENABLED)
 319:.\Generated_Source\PSoC5/UART.c **** 
 320:.\Generated_Source\PSoC5/UART.c ****     #if(UART_RX_INTERRUPT_ENABLED)
 321:.\Generated_Source\PSoC5/UART.c **** 
 322:.\Generated_Source\PSoC5/UART.c ****         /*******************************************************************************
 323:.\Generated_Source\PSoC5/UART.c ****         * Function Name: UART_EnableRxInt
 324:.\Generated_Source\PSoC5/UART.c ****         ********************************************************************************
 325:.\Generated_Source\PSoC5/UART.c ****         *
 326:.\Generated_Source\PSoC5/UART.c ****         * Summary:
 327:.\Generated_Source\PSoC5/UART.c ****         *  Enable RX interrupt generation
 328:.\Generated_Source\PSoC5/UART.c ****         *
 329:.\Generated_Source\PSoC5/UART.c ****         * Parameters:
 330:.\Generated_Source\PSoC5/UART.c ****         *  None.
 331:.\Generated_Source\PSoC5/UART.c ****         *
 332:.\Generated_Source\PSoC5/UART.c ****         * Return:
 333:.\Generated_Source\PSoC5/UART.c ****         *  None.
 334:.\Generated_Source\PSoC5/UART.c ****         *
 335:.\Generated_Source\PSoC5/UART.c ****         * Theory:
 336:.\Generated_Source\PSoC5/UART.c ****         *  Enable the interrupt output -or- the interrupt component itself
 337:.\Generated_Source\PSoC5/UART.c ****         *
 338:.\Generated_Source\PSoC5/UART.c ****         *******************************************************************************/
 339:.\Generated_Source\PSoC5/UART.c ****         void UART_EnableRxInt(void) 
 340:.\Generated_Source\PSoC5/UART.c ****         {
ARM GAS  C:\DOCUME~1\student\LOCALS~1\Temp\ccbLgMpg.s 			page 13


 341:.\Generated_Source\PSoC5/UART.c ****             CyIntEnable(UART_RX_VECT_NUM);
 342:.\Generated_Source\PSoC5/UART.c ****         }
 343:.\Generated_Source\PSoC5/UART.c **** 
 344:.\Generated_Source\PSoC5/UART.c **** 
 345:.\Generated_Source\PSoC5/UART.c ****         /*******************************************************************************
 346:.\Generated_Source\PSoC5/UART.c ****         * Function Name: UART_DisableRxInt
 347:.\Generated_Source\PSoC5/UART.c ****         ********************************************************************************
 348:.\Generated_Source\PSoC5/UART.c ****         *
 349:.\Generated_Source\PSoC5/UART.c ****         * Summary:
 350:.\Generated_Source\PSoC5/UART.c ****         *  Disable RX interrupt generation
 351:.\Generated_Source\PSoC5/UART.c ****         *
 352:.\Generated_Source\PSoC5/UART.c ****         * Parameters:
 353:.\Generated_Source\PSoC5/UART.c ****         *  None.
 354:.\Generated_Source\PSoC5/UART.c ****         *
 355:.\Generated_Source\PSoC5/UART.c ****         * Return:
 356:.\Generated_Source\PSoC5/UART.c ****         *  None.
 357:.\Generated_Source\PSoC5/UART.c ****         *
 358:.\Generated_Source\PSoC5/UART.c ****         * Theory:
 359:.\Generated_Source\PSoC5/UART.c ****         *  Disable the interrupt output -or- the interrupt component itself
 360:.\Generated_Source\PSoC5/UART.c ****         *
 361:.\Generated_Source\PSoC5/UART.c ****         *******************************************************************************/
 362:.\Generated_Source\PSoC5/UART.c ****         void UART_DisableRxInt(void) 
 363:.\Generated_Source\PSoC5/UART.c ****         {
 364:.\Generated_Source\PSoC5/UART.c ****             CyIntDisable(UART_RX_VECT_NUM);
 365:.\Generated_Source\PSoC5/UART.c ****         }
 366:.\Generated_Source\PSoC5/UART.c **** 
 367:.\Generated_Source\PSoC5/UART.c ****     #endif /* UART_RX_INTERRUPT_ENABLED */
 368:.\Generated_Source\PSoC5/UART.c **** 
 369:.\Generated_Source\PSoC5/UART.c **** 
 370:.\Generated_Source\PSoC5/UART.c ****     /*******************************************************************************
 371:.\Generated_Source\PSoC5/UART.c ****     * Function Name: UART_SetRxInterruptMode
 372:.\Generated_Source\PSoC5/UART.c ****     ********************************************************************************
 373:.\Generated_Source\PSoC5/UART.c ****     *
 374:.\Generated_Source\PSoC5/UART.c ****     * Summary:
 375:.\Generated_Source\PSoC5/UART.c ****     *  Configure which status bits trigger an interrupt event
 376:.\Generated_Source\PSoC5/UART.c ****     *
 377:.\Generated_Source\PSoC5/UART.c ****     * Parameters:
 378:.\Generated_Source\PSoC5/UART.c ****     *  IntSrc:  An or'd combination of the desired status bit masks (defined in
 379:.\Generated_Source\PSoC5/UART.c ****     *           the header file)
 380:.\Generated_Source\PSoC5/UART.c ****     *
 381:.\Generated_Source\PSoC5/UART.c ****     * Return:
 382:.\Generated_Source\PSoC5/UART.c ****     *  None.
 383:.\Generated_Source\PSoC5/UART.c ****     *
 384:.\Generated_Source\PSoC5/UART.c ****     * Theory:
 385:.\Generated_Source\PSoC5/UART.c ****     *  Enables the output of specific status bits to the interrupt controller
 386:.\Generated_Source\PSoC5/UART.c ****     *
 387:.\Generated_Source\PSoC5/UART.c ****     *******************************************************************************/
 388:.\Generated_Source\PSoC5/UART.c ****     void UART_SetRxInterruptMode(uint8 intSrc) 
 389:.\Generated_Source\PSoC5/UART.c ****     {
 341              		.loc 1 389 0
 342              		.cfi_startproc
 343              		@ args = 0, pretend = 0, frame = 8
 344              		@ frame_needed = 1, uses_anonymous_args = 0
 345              		@ link register save eliminated.
 346 0000 80B4     		push	{r7}
 347              	.LCFI15:
 348              		.cfi_def_cfa_offset 4
ARM GAS  C:\DOCUME~1\student\LOCALS~1\Temp\ccbLgMpg.s 			page 14


 349 0002 83B0     		sub	sp, sp, #12
 350              	.LCFI16:
 351              		.cfi_def_cfa_offset 16
 352 0004 00AF     		add	r7, sp, #0
 353              		.cfi_offset 7, -4
 354              	.LCFI17:
 355              		.cfi_def_cfa_register 7
 356 0006 0346     		mov	r3, r0
 357 0008 FB71     		strb	r3, [r7, #7]
 390:.\Generated_Source\PSoC5/UART.c ****         UART_RXSTATUS_MASK_REG  = intSrc;
 358              		.loc 1 390 0
 359 000a 46F28F43 		movw	r3, #:lower16:1073767567
 360 000e C4F20003 		movt	r3, #:upper16:1073767567
 361 0012 FA79     		ldrb	r2, [r7, #7]
 362 0014 1A70     		strb	r2, [r3, #0]
 391:.\Generated_Source\PSoC5/UART.c ****     }
 363              		.loc 1 391 0
 364 0016 07F10C07 		add	r7, r7, #12
 365 001a BD46     		mov	sp, r7
 366 001c 80BC     		pop	{r7}
 367 001e 7047     		bx	lr
 368              		.cfi_endproc
 369              	.LFE6:
 370              		.size	UART_SetRxInterruptMode, .-UART_SetRxInterruptMode
 371              		.section	.text.UART_ReadRxData,"ax",%progbits
 372              		.align	2
 373              		.global	UART_ReadRxData
 374              		.thumb
 375              		.thumb_func
 376              		.type	UART_ReadRxData, %function
 377              	UART_ReadRxData:
 378              	.LFB7:
 392:.\Generated_Source\PSoC5/UART.c **** 
 393:.\Generated_Source\PSoC5/UART.c **** 
 394:.\Generated_Source\PSoC5/UART.c ****     /*******************************************************************************
 395:.\Generated_Source\PSoC5/UART.c ****     * Function Name: UART_ReadRxData
 396:.\Generated_Source\PSoC5/UART.c ****     ********************************************************************************
 397:.\Generated_Source\PSoC5/UART.c ****     *
 398:.\Generated_Source\PSoC5/UART.c ****     * Summary:
 399:.\Generated_Source\PSoC5/UART.c ****     *  Returns data in RX Data register without checking status register to 
 400:.\Generated_Source\PSoC5/UART.c ****     *  determine if data is valid
 401:.\Generated_Source\PSoC5/UART.c ****     *
 402:.\Generated_Source\PSoC5/UART.c ****     * Parameters:
 403:.\Generated_Source\PSoC5/UART.c ****     *  None.
 404:.\Generated_Source\PSoC5/UART.c ****     *
 405:.\Generated_Source\PSoC5/UART.c ****     * Return:
 406:.\Generated_Source\PSoC5/UART.c ****     *  Received data from RX register
 407:.\Generated_Source\PSoC5/UART.c ****     *
 408:.\Generated_Source\PSoC5/UART.c ****     * Global Variables:
 409:.\Generated_Source\PSoC5/UART.c ****     *  UART_rxBuffer - RAM buffer pointer for save received data.
 410:.\Generated_Source\PSoC5/UART.c ****     *  UART_rxBufferWrite - cyclic index for write to rxBuffer, 
 411:.\Generated_Source\PSoC5/UART.c ****     *     checked to identify new data. 
 412:.\Generated_Source\PSoC5/UART.c ****     *  UART_rxBufferRead - cyclic index for read from rxBuffer, 
 413:.\Generated_Source\PSoC5/UART.c ****     *     incremented after each byte has been read from buffer.
 414:.\Generated_Source\PSoC5/UART.c ****     *  UART_rxBufferLoopDetect - creared if loop condition was detected
 415:.\Generated_Source\PSoC5/UART.c ****     *     in RX ISR. 
 416:.\Generated_Source\PSoC5/UART.c ****     *
ARM GAS  C:\DOCUME~1\student\LOCALS~1\Temp\ccbLgMpg.s 			page 15


 417:.\Generated_Source\PSoC5/UART.c ****     * Reentrant:
 418:.\Generated_Source\PSoC5/UART.c ****     *  No.
 419:.\Generated_Source\PSoC5/UART.c ****     *
 420:.\Generated_Source\PSoC5/UART.c ****     *******************************************************************************/
 421:.\Generated_Source\PSoC5/UART.c ****     uint8 UART_ReadRxData(void) 
 422:.\Generated_Source\PSoC5/UART.c ****     {
 379              		.loc 1 422 0
 380              		.cfi_startproc
 381              		@ args = 0, pretend = 0, frame = 8
 382              		@ frame_needed = 1, uses_anonymous_args = 0
 383              		@ link register save eliminated.
 384 0000 80B4     		push	{r7}
 385              	.LCFI18:
 386              		.cfi_def_cfa_offset 4
 387 0002 83B0     		sub	sp, sp, #12
 388              	.LCFI19:
 389              		.cfi_def_cfa_offset 16
 390 0004 00AF     		add	r7, sp, #0
 391              		.cfi_offset 7, -4
 392              	.LCFI20:
 393              		.cfi_def_cfa_register 7
 423:.\Generated_Source\PSoC5/UART.c ****         uint8 rxData;
 424:.\Generated_Source\PSoC5/UART.c **** 
 425:.\Generated_Source\PSoC5/UART.c ****         #if(UART_RXBUFFERSIZE > UART_FIFO_LENGTH)
 426:.\Generated_Source\PSoC5/UART.c **** 
 427:.\Generated_Source\PSoC5/UART.c ****             /* Disable Rx interrupt. */
 428:.\Generated_Source\PSoC5/UART.c ****             /* Protect variables that could change on interrupt. */
 429:.\Generated_Source\PSoC5/UART.c ****             #if(UART_RX_INTERRUPT_ENABLED)
 430:.\Generated_Source\PSoC5/UART.c ****                 UART_DisableRxInt();
 431:.\Generated_Source\PSoC5/UART.c ****             #endif /* End UART_RX_INTERRUPT_ENABLED */
 432:.\Generated_Source\PSoC5/UART.c **** 
 433:.\Generated_Source\PSoC5/UART.c ****             if( (UART_rxBufferRead != UART_rxBufferWrite) ||
 434:.\Generated_Source\PSoC5/UART.c ****                 (UART_rxBufferLoopDetect > 0u) )
 435:.\Generated_Source\PSoC5/UART.c ****             {
 436:.\Generated_Source\PSoC5/UART.c **** 
 437:.\Generated_Source\PSoC5/UART.c ****                 rxData = UART_rxBuffer[UART_rxBufferRead];
 438:.\Generated_Source\PSoC5/UART.c **** 
 439:.\Generated_Source\PSoC5/UART.c ****                 UART_rxBufferRead++;
 440:.\Generated_Source\PSoC5/UART.c **** 
 441:.\Generated_Source\PSoC5/UART.c ****                 if(UART_rxBufferRead >= UART_RXBUFFERSIZE)
 442:.\Generated_Source\PSoC5/UART.c ****                 {
 443:.\Generated_Source\PSoC5/UART.c ****                     UART_rxBufferRead = 0u;
 444:.\Generated_Source\PSoC5/UART.c ****                 }
 445:.\Generated_Source\PSoC5/UART.c **** 
 446:.\Generated_Source\PSoC5/UART.c ****                 if(UART_rxBufferLoopDetect > 0u )
 447:.\Generated_Source\PSoC5/UART.c ****                 {
 448:.\Generated_Source\PSoC5/UART.c ****                     UART_rxBufferLoopDetect = 0u;
 449:.\Generated_Source\PSoC5/UART.c ****                     #if( (UART_RX_INTERRUPT_ENABLED) && (UART_FLOW_CONTROL != 0u) && \
 450:.\Generated_Source\PSoC5/UART.c ****                          (UART_RXBUFFERSIZE > UART_FIFO_LENGTH) )
 451:.\Generated_Source\PSoC5/UART.c ****                         /* When Hardware Flow Control selected - return RX mask */
 452:.\Generated_Source\PSoC5/UART.c ****                         #if( UART_HD_ENABLED )
 453:.\Generated_Source\PSoC5/UART.c ****                             if((UART_CONTROL_REG & UART_CTRL_HD_SEND) == 0)
 454:.\Generated_Source\PSoC5/UART.c ****                             {   /* In Half duplex mode return RX mask only in RX 
 455:.\Generated_Source\PSoC5/UART.c ****                                 *  configuration set, otherwise 
 456:.\Generated_Source\PSoC5/UART.c ****                                 *  mask will be returned in LoadRxConfig() API. 
 457:.\Generated_Source\PSoC5/UART.c ****                                 */
 458:.\Generated_Source\PSoC5/UART.c ****                                 UART_RXSTATUS_MASK_REG  |= UART_RX_STS_FIFO_NOTEMPTY;
ARM GAS  C:\DOCUME~1\student\LOCALS~1\Temp\ccbLgMpg.s 			page 16


 459:.\Generated_Source\PSoC5/UART.c ****                             }
 460:.\Generated_Source\PSoC5/UART.c ****                         #else
 461:.\Generated_Source\PSoC5/UART.c ****                             UART_RXSTATUS_MASK_REG  |= UART_RX_STS_FIFO_NOTEMPTY;
 462:.\Generated_Source\PSoC5/UART.c ****                         #endif /* end UART_HD_ENABLED */
 463:.\Generated_Source\PSoC5/UART.c ****                     #endif /* UART_RX_INTERRUPT_ENABLED and Hardware flow control*/
 464:.\Generated_Source\PSoC5/UART.c ****                 }
 465:.\Generated_Source\PSoC5/UART.c ****             }
 466:.\Generated_Source\PSoC5/UART.c ****             else
 467:.\Generated_Source\PSoC5/UART.c ****             {   /* Needs to check status for RX_STS_FIFO_NOTEMPTY bit*/
 468:.\Generated_Source\PSoC5/UART.c ****                 rxData = UART_RXDATA_REG;
 469:.\Generated_Source\PSoC5/UART.c ****             }
 470:.\Generated_Source\PSoC5/UART.c **** 
 471:.\Generated_Source\PSoC5/UART.c ****             /* Enable Rx interrupt. */
 472:.\Generated_Source\PSoC5/UART.c ****             #if(UART_RX_INTERRUPT_ENABLED)
 473:.\Generated_Source\PSoC5/UART.c ****                 UART_EnableRxInt();
 474:.\Generated_Source\PSoC5/UART.c ****             #endif /* End UART_RX_INTERRUPT_ENABLED */
 475:.\Generated_Source\PSoC5/UART.c **** 
 476:.\Generated_Source\PSoC5/UART.c ****         #else /* UART_RXBUFFERSIZE > UART_FIFO_LENGTH */
 477:.\Generated_Source\PSoC5/UART.c **** 
 478:.\Generated_Source\PSoC5/UART.c ****             /* Needs to check status for RX_STS_FIFO_NOTEMPTY bit*/
 479:.\Generated_Source\PSoC5/UART.c ****             rxData = UART_RXDATA_REG;
 394              		.loc 1 479 0
 395 0006 46F24F43 		movw	r3, #:lower16:1073767503
 396 000a C4F20003 		movt	r3, #:upper16:1073767503
 397 000e 1B78     		ldrb	r3, [r3, #0]
 398 0010 FB71     		strb	r3, [r7, #7]
 480:.\Generated_Source\PSoC5/UART.c **** 
 481:.\Generated_Source\PSoC5/UART.c ****         #endif /* UART_RXBUFFERSIZE > UART_FIFO_LENGTH */
 482:.\Generated_Source\PSoC5/UART.c **** 
 483:.\Generated_Source\PSoC5/UART.c ****         return(rxData);
 399              		.loc 1 483 0
 400 0012 FB79     		ldrb	r3, [r7, #7]	@ zero_extendqisi2
 484:.\Generated_Source\PSoC5/UART.c ****     }
 401              		.loc 1 484 0
 402 0014 1846     		mov	r0, r3
 403 0016 07F10C07 		add	r7, r7, #12
 404 001a BD46     		mov	sp, r7
 405 001c 80BC     		pop	{r7}
 406 001e 7047     		bx	lr
 407              		.cfi_endproc
 408              	.LFE7:
 409              		.size	UART_ReadRxData, .-UART_ReadRxData
 410              		.section	.text.UART_ReadRxStatus,"ax",%progbits
 411              		.align	2
 412              		.global	UART_ReadRxStatus
 413              		.thumb
 414              		.thumb_func
 415              		.type	UART_ReadRxStatus, %function
 416              	UART_ReadRxStatus:
 417              	.LFB8:
 485:.\Generated_Source\PSoC5/UART.c **** 
 486:.\Generated_Source\PSoC5/UART.c **** 
 487:.\Generated_Source\PSoC5/UART.c ****     /*******************************************************************************
 488:.\Generated_Source\PSoC5/UART.c ****     * Function Name: UART_ReadRxStatus
 489:.\Generated_Source\PSoC5/UART.c ****     ********************************************************************************
 490:.\Generated_Source\PSoC5/UART.c ****     *
 491:.\Generated_Source\PSoC5/UART.c ****     * Summary:
ARM GAS  C:\DOCUME~1\student\LOCALS~1\Temp\ccbLgMpg.s 			page 17


 492:.\Generated_Source\PSoC5/UART.c ****     *  Read the current state of the status register
 493:.\Generated_Source\PSoC5/UART.c ****     *  And detect software buffer overflow.
 494:.\Generated_Source\PSoC5/UART.c ****     *
 495:.\Generated_Source\PSoC5/UART.c ****     * Parameters:
 496:.\Generated_Source\PSoC5/UART.c ****     *  None.
 497:.\Generated_Source\PSoC5/UART.c ****     *
 498:.\Generated_Source\PSoC5/UART.c ****     * Return:
 499:.\Generated_Source\PSoC5/UART.c ****     *  Current state of the status register.
 500:.\Generated_Source\PSoC5/UART.c ****     *
 501:.\Generated_Source\PSoC5/UART.c ****     * Global Variables:
 502:.\Generated_Source\PSoC5/UART.c ****     *  UART_rxBufferOverflow - used to indicate overload condition. 
 503:.\Generated_Source\PSoC5/UART.c ****     *   It set to one in RX interrupt when there isn?t free space in 
 504:.\Generated_Source\PSoC5/UART.c ****     *   UART_rxBufferRead to write new data. This condition returned 
 505:.\Generated_Source\PSoC5/UART.c ****     *   and cleared to zero by this API as an 
 506:.\Generated_Source\PSoC5/UART.c ****     *   UART_RX_STS_SOFT_BUFF_OVER bit along with RX Status register 
 507:.\Generated_Source\PSoC5/UART.c ****     *   bits.
 508:.\Generated_Source\PSoC5/UART.c ****     *
 509:.\Generated_Source\PSoC5/UART.c ****     *******************************************************************************/
 510:.\Generated_Source\PSoC5/UART.c ****     uint8 UART_ReadRxStatus(void) 
 511:.\Generated_Source\PSoC5/UART.c ****     {
 418              		.loc 1 511 0
 419              		.cfi_startproc
 420              		@ args = 0, pretend = 0, frame = 8
 421              		@ frame_needed = 1, uses_anonymous_args = 0
 422              		@ link register save eliminated.
 423 0000 80B4     		push	{r7}
 424              	.LCFI21:
 425              		.cfi_def_cfa_offset 4
 426 0002 83B0     		sub	sp, sp, #12
 427              	.LCFI22:
 428              		.cfi_def_cfa_offset 16
 429 0004 00AF     		add	r7, sp, #0
 430              		.cfi_offset 7, -4
 431              	.LCFI23:
 432              		.cfi_def_cfa_register 7
 512:.\Generated_Source\PSoC5/UART.c ****         uint8 status;
 513:.\Generated_Source\PSoC5/UART.c **** 
 514:.\Generated_Source\PSoC5/UART.c ****         status = UART_RXSTATUS_REG;
 433              		.loc 1 514 0
 434 0006 46F26F43 		movw	r3, #:lower16:1073767535
 435 000a C4F20003 		movt	r3, #:upper16:1073767535
 436 000e 1B78     		ldrb	r3, [r3, #0]
 437 0010 FB71     		strb	r3, [r7, #7]
 515:.\Generated_Source\PSoC5/UART.c ****         status &= UART_RX_HW_MASK;
 438              		.loc 1 515 0
 439 0012 FB79     		ldrb	r3, [r7, #7]
 440 0014 03F07F03 		and	r3, r3, #127
 441 0018 FB71     		strb	r3, [r7, #7]
 516:.\Generated_Source\PSoC5/UART.c **** 
 517:.\Generated_Source\PSoC5/UART.c ****         #if(UART_RXBUFFERSIZE > UART_FIFO_LENGTH)
 518:.\Generated_Source\PSoC5/UART.c ****             if( UART_rxBufferOverflow )
 519:.\Generated_Source\PSoC5/UART.c ****             {
 520:.\Generated_Source\PSoC5/UART.c ****                 status |= UART_RX_STS_SOFT_BUFF_OVER;
 521:.\Generated_Source\PSoC5/UART.c ****                 UART_rxBufferOverflow = 0u;
 522:.\Generated_Source\PSoC5/UART.c ****             }
 523:.\Generated_Source\PSoC5/UART.c ****         #endif /* UART_RXBUFFERSIZE */
 524:.\Generated_Source\PSoC5/UART.c **** 
ARM GAS  C:\DOCUME~1\student\LOCALS~1\Temp\ccbLgMpg.s 			page 18


 525:.\Generated_Source\PSoC5/UART.c ****         return(status);
 442              		.loc 1 525 0
 443 001a FB79     		ldrb	r3, [r7, #7]	@ zero_extendqisi2
 526:.\Generated_Source\PSoC5/UART.c ****     }
 444              		.loc 1 526 0
 445 001c 1846     		mov	r0, r3
 446 001e 07F10C07 		add	r7, r7, #12
 447 0022 BD46     		mov	sp, r7
 448 0024 80BC     		pop	{r7}
 449 0026 7047     		bx	lr
 450              		.cfi_endproc
 451              	.LFE8:
 452              		.size	UART_ReadRxStatus, .-UART_ReadRxStatus
 453              		.section	.text.UART_GetChar,"ax",%progbits
 454              		.align	2
 455              		.global	UART_GetChar
 456              		.thumb
 457              		.thumb_func
 458              		.type	UART_GetChar, %function
 459              	UART_GetChar:
 460              	.LFB9:
 527:.\Generated_Source\PSoC5/UART.c **** 
 528:.\Generated_Source\PSoC5/UART.c **** 
 529:.\Generated_Source\PSoC5/UART.c ****     /*******************************************************************************
 530:.\Generated_Source\PSoC5/UART.c ****     * Function Name: UART_GetChar
 531:.\Generated_Source\PSoC5/UART.c ****     ********************************************************************************
 532:.\Generated_Source\PSoC5/UART.c ****     *
 533:.\Generated_Source\PSoC5/UART.c ****     * Summary:
 534:.\Generated_Source\PSoC5/UART.c ****     *  Reads UART RX buffer immediately, if data is not available or an error 
 535:.\Generated_Source\PSoC5/UART.c ****     *  condition exists, zero is returned; otherwise, character is read and 
 536:.\Generated_Source\PSoC5/UART.c ****     *  returned.
 537:.\Generated_Source\PSoC5/UART.c ****     *
 538:.\Generated_Source\PSoC5/UART.c ****     * Parameters:
 539:.\Generated_Source\PSoC5/UART.c ****     *  None.
 540:.\Generated_Source\PSoC5/UART.c ****     *
 541:.\Generated_Source\PSoC5/UART.c ****     * Return:
 542:.\Generated_Source\PSoC5/UART.c ****     *  Character read from UART RX buffer. ASCII characters from 1 to 255 are valid.
 543:.\Generated_Source\PSoC5/UART.c ****     *  A returned zero signifies an error condition or no data available.
 544:.\Generated_Source\PSoC5/UART.c ****     *
 545:.\Generated_Source\PSoC5/UART.c ****     * Global Variables:
 546:.\Generated_Source\PSoC5/UART.c ****     *  UART_rxBuffer - RAM buffer pointer for save received data.
 547:.\Generated_Source\PSoC5/UART.c ****     *  UART_rxBufferWrite - cyclic index for write to rxBuffer, 
 548:.\Generated_Source\PSoC5/UART.c ****     *     checked to identify new data. 
 549:.\Generated_Source\PSoC5/UART.c ****     *  UART_rxBufferRead - cyclic index for read from rxBuffer, 
 550:.\Generated_Source\PSoC5/UART.c ****     *     incremented after each byte has been read from buffer.
 551:.\Generated_Source\PSoC5/UART.c ****     *  UART_rxBufferLoopDetect - creared if loop condition was detected
 552:.\Generated_Source\PSoC5/UART.c ****     *     in RX ISR. 
 553:.\Generated_Source\PSoC5/UART.c ****     *
 554:.\Generated_Source\PSoC5/UART.c ****     * Reentrant:
 555:.\Generated_Source\PSoC5/UART.c ****     *  No.
 556:.\Generated_Source\PSoC5/UART.c ****     *
 557:.\Generated_Source\PSoC5/UART.c ****     *******************************************************************************/
 558:.\Generated_Source\PSoC5/UART.c ****     uint8 UART_GetChar(void) 
 559:.\Generated_Source\PSoC5/UART.c ****     {
 461              		.loc 1 559 0
 462              		.cfi_startproc
 463              		@ args = 0, pretend = 0, frame = 8
ARM GAS  C:\DOCUME~1\student\LOCALS~1\Temp\ccbLgMpg.s 			page 19


 464              		@ frame_needed = 1, uses_anonymous_args = 0
 465              		@ link register save eliminated.
 466 0000 80B4     		push	{r7}
 467              	.LCFI24:
 468              		.cfi_def_cfa_offset 4
 469 0002 83B0     		sub	sp, sp, #12
 470              	.LCFI25:
 471              		.cfi_def_cfa_offset 16
 472 0004 00AF     		add	r7, sp, #0
 473              		.cfi_offset 7, -4
 474              	.LCFI26:
 475              		.cfi_def_cfa_register 7
 560:.\Generated_Source\PSoC5/UART.c ****         uint8 rxData = 0u;
 476              		.loc 1 560 0
 477 0006 4FF00003 		mov	r3, #0
 478 000a BB71     		strb	r3, [r7, #6]
 561:.\Generated_Source\PSoC5/UART.c ****         uint8 rxStatus;
 562:.\Generated_Source\PSoC5/UART.c **** 
 563:.\Generated_Source\PSoC5/UART.c ****         #if(UART_RXBUFFERSIZE > UART_FIFO_LENGTH)
 564:.\Generated_Source\PSoC5/UART.c **** 
 565:.\Generated_Source\PSoC5/UART.c ****             /* Disable Rx interrupt. */
 566:.\Generated_Source\PSoC5/UART.c ****             /* Protect variables that could change on interrupt. */
 567:.\Generated_Source\PSoC5/UART.c ****             #if(UART_RX_INTERRUPT_ENABLED)
 568:.\Generated_Source\PSoC5/UART.c ****                 UART_DisableRxInt();
 569:.\Generated_Source\PSoC5/UART.c ****             #endif /* UART_RX_INTERRUPT_ENABLED */
 570:.\Generated_Source\PSoC5/UART.c **** 
 571:.\Generated_Source\PSoC5/UART.c ****             if( (UART_rxBufferRead != UART_rxBufferWrite) ||
 572:.\Generated_Source\PSoC5/UART.c ****                 (UART_rxBufferLoopDetect > 0u) )
 573:.\Generated_Source\PSoC5/UART.c ****             {
 574:.\Generated_Source\PSoC5/UART.c ****                 rxData = UART_rxBuffer[UART_rxBufferRead];
 575:.\Generated_Source\PSoC5/UART.c **** 
 576:.\Generated_Source\PSoC5/UART.c ****                 UART_rxBufferRead++;
 577:.\Generated_Source\PSoC5/UART.c **** 
 578:.\Generated_Source\PSoC5/UART.c ****                 if(UART_rxBufferRead >= UART_RXBUFFERSIZE)
 579:.\Generated_Source\PSoC5/UART.c ****                 {
 580:.\Generated_Source\PSoC5/UART.c ****                     UART_rxBufferRead = 0u;
 581:.\Generated_Source\PSoC5/UART.c ****                 }
 582:.\Generated_Source\PSoC5/UART.c **** 
 583:.\Generated_Source\PSoC5/UART.c ****                 if(UART_rxBufferLoopDetect > 0u ) 
 584:.\Generated_Source\PSoC5/UART.c ****                 {
 585:.\Generated_Source\PSoC5/UART.c ****                     UART_rxBufferLoopDetect = 0u;
 586:.\Generated_Source\PSoC5/UART.c ****                     #if( (UART_RX_INTERRUPT_ENABLED) && (UART_FLOW_CONTROL != 0u) && \
 587:.\Generated_Source\PSoC5/UART.c ****                          (UART_RXBUFFERSIZE > UART_FIFO_LENGTH) )
 588:.\Generated_Source\PSoC5/UART.c ****                         /* When Hardware Flow Control selected - return RX mask */
 589:.\Generated_Source\PSoC5/UART.c ****                         #if( UART_HD_ENABLED )
 590:.\Generated_Source\PSoC5/UART.c ****                             if((UART_CONTROL_REG & UART_CTRL_HD_SEND) == 0)
 591:.\Generated_Source\PSoC5/UART.c ****                             {   /* In Half duplex mode return RX mask only if 
 592:.\Generated_Source\PSoC5/UART.c ****                                 *  RX configuration set, otherwise 
 593:.\Generated_Source\PSoC5/UART.c ****                                 *  mask will be returned in LoadRxConfig() API. 
 594:.\Generated_Source\PSoC5/UART.c ****                                 */
 595:.\Generated_Source\PSoC5/UART.c ****                                 UART_RXSTATUS_MASK_REG  |= UART_RX_STS_FIFO_NOTEMPTY;
 596:.\Generated_Source\PSoC5/UART.c ****                             }
 597:.\Generated_Source\PSoC5/UART.c ****                         #else
 598:.\Generated_Source\PSoC5/UART.c ****                             UART_RXSTATUS_MASK_REG  |= UART_RX_STS_FIFO_NOTEMPTY;
 599:.\Generated_Source\PSoC5/UART.c ****                         #endif /* end UART_HD_ENABLED */
 600:.\Generated_Source\PSoC5/UART.c ****                     #endif /* UART_RX_INTERRUPT_ENABLED and Hardware flow control*/
 601:.\Generated_Source\PSoC5/UART.c ****                 }
ARM GAS  C:\DOCUME~1\student\LOCALS~1\Temp\ccbLgMpg.s 			page 20


 602:.\Generated_Source\PSoC5/UART.c **** 
 603:.\Generated_Source\PSoC5/UART.c ****             }
 604:.\Generated_Source\PSoC5/UART.c ****             else
 605:.\Generated_Source\PSoC5/UART.c ****             {   rxStatus =UART_RXSTATUS_REG;
 606:.\Generated_Source\PSoC5/UART.c ****                 if(rxStatus & UART_RX_STS_FIFO_NOTEMPTY)
 607:.\Generated_Source\PSoC5/UART.c ****                 {   /* Read received data from FIFO*/
 608:.\Generated_Source\PSoC5/UART.c ****                     rxData = UART_RXDATA_REG;
 609:.\Generated_Source\PSoC5/UART.c ****                     /*Check status on error*/
 610:.\Generated_Source\PSoC5/UART.c ****                     if(rxStatus & (UART_RX_STS_BREAK | UART_RX_STS_PAR_ERROR |
 611:.\Generated_Source\PSoC5/UART.c ****                                    UART_RX_STS_STOP_ERROR | UART_RX_STS_OVERRUN))
 612:.\Generated_Source\PSoC5/UART.c ****                     {
 613:.\Generated_Source\PSoC5/UART.c ****                         rxData = 0u;
 614:.\Generated_Source\PSoC5/UART.c ****                     }    
 615:.\Generated_Source\PSoC5/UART.c ****                 }
 616:.\Generated_Source\PSoC5/UART.c ****             }
 617:.\Generated_Source\PSoC5/UART.c **** 
 618:.\Generated_Source\PSoC5/UART.c ****             /* Enable Rx interrupt. */
 619:.\Generated_Source\PSoC5/UART.c ****             #if(UART_RX_INTERRUPT_ENABLED)
 620:.\Generated_Source\PSoC5/UART.c ****                 UART_EnableRxInt();
 621:.\Generated_Source\PSoC5/UART.c ****             #endif /* UART_RX_INTERRUPT_ENABLED */
 622:.\Generated_Source\PSoC5/UART.c **** 
 623:.\Generated_Source\PSoC5/UART.c ****         #else /* UART_RXBUFFERSIZE > UART_FIFO_LENGTH */
 624:.\Generated_Source\PSoC5/UART.c **** 
 625:.\Generated_Source\PSoC5/UART.c ****             rxStatus =UART_RXSTATUS_REG;
 479              		.loc 1 625 0
 480 000c 46F26F43 		movw	r3, #:lower16:1073767535
 481 0010 C4F20003 		movt	r3, #:upper16:1073767535
 482 0014 1B78     		ldrb	r3, [r3, #0]
 483 0016 FB71     		strb	r3, [r7, #7]
 626:.\Generated_Source\PSoC5/UART.c ****             if(rxStatus & UART_RX_STS_FIFO_NOTEMPTY)
 484              		.loc 1 626 0
 485 0018 FB79     		ldrb	r3, [r7, #7]	@ zero_extendqisi2
 486 001a 03F02003 		and	r3, r3, #32
 487 001e 002B     		cmp	r3, #0
 488 0020 0DD0     		beq	.L21
 627:.\Generated_Source\PSoC5/UART.c ****             {   /* Read received data from FIFO*/
 628:.\Generated_Source\PSoC5/UART.c ****                 rxData = UART_RXDATA_REG;
 489              		.loc 1 628 0
 490 0022 46F24F43 		movw	r3, #:lower16:1073767503
 491 0026 C4F20003 		movt	r3, #:upper16:1073767503
 492 002a 1B78     		ldrb	r3, [r3, #0]
 493 002c BB71     		strb	r3, [r7, #6]
 629:.\Generated_Source\PSoC5/UART.c ****                 /*Check status on error*/
 630:.\Generated_Source\PSoC5/UART.c ****                 if(rxStatus & (UART_RX_STS_BREAK | UART_RX_STS_PAR_ERROR |
 494              		.loc 1 630 0
 495 002e FB79     		ldrb	r3, [r7, #7]	@ zero_extendqisi2
 496 0030 03F01E03 		and	r3, r3, #30
 497 0034 002B     		cmp	r3, #0
 498 0036 02D0     		beq	.L21
 631:.\Generated_Source\PSoC5/UART.c ****                                UART_RX_STS_STOP_ERROR | UART_RX_STS_OVERRUN))
 632:.\Generated_Source\PSoC5/UART.c ****                 {
 633:.\Generated_Source\PSoC5/UART.c ****                     rxData = 0u;
 499              		.loc 1 633 0
 500 0038 4FF00003 		mov	r3, #0
 501 003c BB71     		strb	r3, [r7, #6]
 502              	.L21:
 634:.\Generated_Source\PSoC5/UART.c ****                 }
ARM GAS  C:\DOCUME~1\student\LOCALS~1\Temp\ccbLgMpg.s 			page 21


 635:.\Generated_Source\PSoC5/UART.c ****             }
 636:.\Generated_Source\PSoC5/UART.c ****         #endif /* UART_RXBUFFERSIZE > UART_FIFO_LENGTH */
 637:.\Generated_Source\PSoC5/UART.c **** 
 638:.\Generated_Source\PSoC5/UART.c ****         return(rxData);
 503              		.loc 1 638 0
 504 003e BB79     		ldrb	r3, [r7, #6]	@ zero_extendqisi2
 639:.\Generated_Source\PSoC5/UART.c ****     }
 505              		.loc 1 639 0
 506 0040 1846     		mov	r0, r3
 507 0042 07F10C07 		add	r7, r7, #12
 508 0046 BD46     		mov	sp, r7
 509 0048 80BC     		pop	{r7}
 510 004a 7047     		bx	lr
 511              		.cfi_endproc
 512              	.LFE9:
 513              		.size	UART_GetChar, .-UART_GetChar
 514              		.section	.text.UART_GetByte,"ax",%progbits
 515              		.align	2
 516              		.global	UART_GetByte
 517              		.thumb
 518              		.thumb_func
 519              		.type	UART_GetByte, %function
 520              	UART_GetByte:
 521              	.LFB10:
 640:.\Generated_Source\PSoC5/UART.c **** 
 641:.\Generated_Source\PSoC5/UART.c **** 
 642:.\Generated_Source\PSoC5/UART.c ****     /*******************************************************************************
 643:.\Generated_Source\PSoC5/UART.c ****     * Function Name: UART_GetByte
 644:.\Generated_Source\PSoC5/UART.c ****     ********************************************************************************
 645:.\Generated_Source\PSoC5/UART.c ****     *
 646:.\Generated_Source\PSoC5/UART.c ****     * Summary:
 647:.\Generated_Source\PSoC5/UART.c ****     *  Grab the next available byte of data from the recieve FIFO
 648:.\Generated_Source\PSoC5/UART.c ****     *
 649:.\Generated_Source\PSoC5/UART.c ****     * Parameters:
 650:.\Generated_Source\PSoC5/UART.c ****     *  None.
 651:.\Generated_Source\PSoC5/UART.c ****     *
 652:.\Generated_Source\PSoC5/UART.c ****     * Return:
 653:.\Generated_Source\PSoC5/UART.c ****     *  MSB contains Status Register and LSB contains UART RX data
 654:.\Generated_Source\PSoC5/UART.c ****     *
 655:.\Generated_Source\PSoC5/UART.c ****     * Reentrant:
 656:.\Generated_Source\PSoC5/UART.c ****     *  No.
 657:.\Generated_Source\PSoC5/UART.c ****     *
 658:.\Generated_Source\PSoC5/UART.c ****     *******************************************************************************/
 659:.\Generated_Source\PSoC5/UART.c ****     uint16 UART_GetByte(void) 
 660:.\Generated_Source\PSoC5/UART.c ****     {
 522              		.loc 1 660 0
 523              		.cfi_startproc
 524              		@ args = 0, pretend = 0, frame = 0
 525              		@ frame_needed = 1, uses_anonymous_args = 0
 526 0000 98B5     		push	{r3, r4, r7, lr}
 527              	.LCFI27:
 528              		.cfi_def_cfa_offset 16
 529 0002 00AF     		add	r7, sp, #0
 530              		.cfi_offset 14, -4
 531              		.cfi_offset 7, -8
 532              		.cfi_offset 4, -12
 533              		.cfi_offset 3, -16
ARM GAS  C:\DOCUME~1\student\LOCALS~1\Temp\ccbLgMpg.s 			page 22


 534              	.LCFI28:
 535              		.cfi_def_cfa_register 7
 661:.\Generated_Source\PSoC5/UART.c ****         return ( ((uint16)UART_ReadRxStatus() << 8u) | UART_ReadRxData() );
 536              		.loc 1 661 0
 537 0004 FFF7FEFF 		bl	UART_ReadRxStatus
 538 0008 0346     		mov	r3, r0
 539 000a 4FEA0323 		lsl	r3, r3, #8
 540 000e 9CB2     		uxth	r4, r3
 541 0010 FFF7FEFF 		bl	UART_ReadRxData
 542 0014 0346     		mov	r3, r0
 543 0016 2246     		mov	r2, r4	@ movhi
 544 0018 42EA0303 		orr	r3, r2, r3
 545 001c 9BB2     		uxth	r3, r3
 546 001e 9BB2     		uxth	r3, r3
 662:.\Generated_Source\PSoC5/UART.c ****     }
 547              		.loc 1 662 0
 548 0020 1846     		mov	r0, r3
 549 0022 98BD     		pop	{r3, r4, r7, pc}
 550              		.cfi_endproc
 551              	.LFE10:
 552              		.size	UART_GetByte, .-UART_GetByte
 553              		.section	.text.UART_GetRxBufferSize,"ax",%progbits
 554              		.align	2
 555              		.global	UART_GetRxBufferSize
 556              		.thumb
 557              		.thumb_func
 558              		.type	UART_GetRxBufferSize, %function
 559              	UART_GetRxBufferSize:
 560              	.LFB11:
 663:.\Generated_Source\PSoC5/UART.c **** 
 664:.\Generated_Source\PSoC5/UART.c **** 
 665:.\Generated_Source\PSoC5/UART.c ****     /*******************************************************************************
 666:.\Generated_Source\PSoC5/UART.c ****     * Function Name: UART_GetRxBufferSize
 667:.\Generated_Source\PSoC5/UART.c ****     ********************************************************************************
 668:.\Generated_Source\PSoC5/UART.c ****     *
 669:.\Generated_Source\PSoC5/UART.c ****     * Summary:
 670:.\Generated_Source\PSoC5/UART.c ****     *  Determine the amount of bytes left in the RX buffer and return the count in
 671:.\Generated_Source\PSoC5/UART.c ****     *  bytes
 672:.\Generated_Source\PSoC5/UART.c ****     *
 673:.\Generated_Source\PSoC5/UART.c ****     * Parameters:
 674:.\Generated_Source\PSoC5/UART.c ****     *  None.
 675:.\Generated_Source\PSoC5/UART.c ****     *
 676:.\Generated_Source\PSoC5/UART.c ****     * Return:
 677:.\Generated_Source\PSoC5/UART.c ****     *  uint8: Integer count of the number of bytes left 
 678:.\Generated_Source\PSoC5/UART.c ****     *  in the RX buffer
 679:.\Generated_Source\PSoC5/UART.c ****     *
 680:.\Generated_Source\PSoC5/UART.c ****     * Global Variables:
 681:.\Generated_Source\PSoC5/UART.c ****     *  UART_rxBufferWrite - used to calculate left bytes. 
 682:.\Generated_Source\PSoC5/UART.c ****     *  UART_rxBufferRead - used to calculate left bytes.
 683:.\Generated_Source\PSoC5/UART.c ****     *  UART_rxBufferLoopDetect - checked to decide left bytes amount. 
 684:.\Generated_Source\PSoC5/UART.c ****     *
 685:.\Generated_Source\PSoC5/UART.c ****     * Reentrant:
 686:.\Generated_Source\PSoC5/UART.c ****     *  No.
 687:.\Generated_Source\PSoC5/UART.c ****     *
 688:.\Generated_Source\PSoC5/UART.c ****     * Theory:
 689:.\Generated_Source\PSoC5/UART.c ****     *  Allows the user to find out how full the RX Buffer is.
 690:.\Generated_Source\PSoC5/UART.c ****     *
ARM GAS  C:\DOCUME~1\student\LOCALS~1\Temp\ccbLgMpg.s 			page 23


 691:.\Generated_Source\PSoC5/UART.c ****     *******************************************************************************/
 692:.\Generated_Source\PSoC5/UART.c ****     uint8 UART_GetRxBufferSize(void) 
 693:.\Generated_Source\PSoC5/UART.c ****                                                             
 694:.\Generated_Source\PSoC5/UART.c ****     {
 561              		.loc 1 694 0
 562              		.cfi_startproc
 563              		@ args = 0, pretend = 0, frame = 8
 564              		@ frame_needed = 1, uses_anonymous_args = 0
 565              		@ link register save eliminated.
 566 0000 80B4     		push	{r7}
 567              	.LCFI29:
 568              		.cfi_def_cfa_offset 4
 569 0002 83B0     		sub	sp, sp, #12
 570              	.LCFI30:
 571              		.cfi_def_cfa_offset 16
 572 0004 00AF     		add	r7, sp, #0
 573              		.cfi_offset 7, -4
 574              	.LCFI31:
 575              		.cfi_def_cfa_register 7
 695:.\Generated_Source\PSoC5/UART.c ****         uint8 size;
 696:.\Generated_Source\PSoC5/UART.c **** 
 697:.\Generated_Source\PSoC5/UART.c ****         #if(UART_RXBUFFERSIZE > UART_FIFO_LENGTH)
 698:.\Generated_Source\PSoC5/UART.c **** 
 699:.\Generated_Source\PSoC5/UART.c ****             /* Disable Rx interrupt. */
 700:.\Generated_Source\PSoC5/UART.c ****             /* Protect variables that could change on interrupt. */
 701:.\Generated_Source\PSoC5/UART.c ****             #if(UART_RX_INTERRUPT_ENABLED)
 702:.\Generated_Source\PSoC5/UART.c ****                 UART_DisableRxInt();
 703:.\Generated_Source\PSoC5/UART.c ****             #endif /* UART_RX_INTERRUPT_ENABLED */
 704:.\Generated_Source\PSoC5/UART.c **** 
 705:.\Generated_Source\PSoC5/UART.c ****             if(UART_rxBufferRead == UART_rxBufferWrite)
 706:.\Generated_Source\PSoC5/UART.c ****             {
 707:.\Generated_Source\PSoC5/UART.c ****                 if(UART_rxBufferLoopDetect > 0u)
 708:.\Generated_Source\PSoC5/UART.c ****                 {
 709:.\Generated_Source\PSoC5/UART.c ****                     size = UART_RXBUFFERSIZE;
 710:.\Generated_Source\PSoC5/UART.c ****                 }
 711:.\Generated_Source\PSoC5/UART.c ****                 else
 712:.\Generated_Source\PSoC5/UART.c ****                 {
 713:.\Generated_Source\PSoC5/UART.c ****                     size = 0u;
 714:.\Generated_Source\PSoC5/UART.c ****                 }
 715:.\Generated_Source\PSoC5/UART.c ****             }
 716:.\Generated_Source\PSoC5/UART.c ****             else if(UART_rxBufferRead < UART_rxBufferWrite)
 717:.\Generated_Source\PSoC5/UART.c ****             {
 718:.\Generated_Source\PSoC5/UART.c ****                 size = (UART_rxBufferWrite - UART_rxBufferRead);
 719:.\Generated_Source\PSoC5/UART.c ****             }
 720:.\Generated_Source\PSoC5/UART.c ****             else
 721:.\Generated_Source\PSoC5/UART.c ****             {
 722:.\Generated_Source\PSoC5/UART.c ****                 size = (UART_RXBUFFERSIZE - UART_rxBufferRead) + UART_rxBufferWrite;
 723:.\Generated_Source\PSoC5/UART.c ****             }
 724:.\Generated_Source\PSoC5/UART.c **** 
 725:.\Generated_Source\PSoC5/UART.c ****             /* Enable Rx interrupt. */
 726:.\Generated_Source\PSoC5/UART.c ****             #if(UART_RX_INTERRUPT_ENABLED)
 727:.\Generated_Source\PSoC5/UART.c ****                 UART_EnableRxInt();
 728:.\Generated_Source\PSoC5/UART.c ****             #endif /* End UART_RX_INTERRUPT_ENABLED */
 729:.\Generated_Source\PSoC5/UART.c **** 
 730:.\Generated_Source\PSoC5/UART.c ****         #else /* UART_RXBUFFERSIZE > UART_FIFO_LENGTH */
 731:.\Generated_Source\PSoC5/UART.c **** 
 732:.\Generated_Source\PSoC5/UART.c ****             /* We can only know if there is data in the fifo. */
ARM GAS  C:\DOCUME~1\student\LOCALS~1\Temp\ccbLgMpg.s 			page 24


 733:.\Generated_Source\PSoC5/UART.c ****             size = (UART_RXSTATUS_REG & UART_RX_STS_FIFO_NOTEMPTY) ? 1u : 0u;
 576              		.loc 1 733 0
 577 0006 46F26F43 		movw	r3, #:lower16:1073767535
 578 000a C4F20003 		movt	r3, #:upper16:1073767535
 579 000e 1B78     		ldrb	r3, [r3, #0]
 580 0010 DBB2     		uxtb	r3, r3
 581 0012 03F02003 		and	r3, r3, #32
 582 0016 002B     		cmp	r3, #0
 583 0018 02D0     		beq	.L26
 584 001a 4FF00103 		mov	r3, #1
 585 001e 01E0     		b	.L27
 586              	.L26:
 587 0020 4FF00003 		mov	r3, #0
 588              	.L27:
 589 0024 FB71     		strb	r3, [r7, #7]
 734:.\Generated_Source\PSoC5/UART.c **** 
 735:.\Generated_Source\PSoC5/UART.c ****         #endif /* End UART_RXBUFFERSIZE > UART_FIFO_LENGTH */
 736:.\Generated_Source\PSoC5/UART.c **** 
 737:.\Generated_Source\PSoC5/UART.c ****         return(size);
 590              		.loc 1 737 0
 591 0026 FB79     		ldrb	r3, [r7, #7]	@ zero_extendqisi2
 738:.\Generated_Source\PSoC5/UART.c ****     }
 592              		.loc 1 738 0
 593 0028 1846     		mov	r0, r3
 594 002a 07F10C07 		add	r7, r7, #12
 595 002e BD46     		mov	sp, r7
 596 0030 80BC     		pop	{r7}
 597 0032 7047     		bx	lr
 598              		.cfi_endproc
 599              	.LFE11:
 600              		.size	UART_GetRxBufferSize, .-UART_GetRxBufferSize
 601              		.section	.text.UART_ClearRxBuffer,"ax",%progbits
 602              		.align	2
 603              		.global	UART_ClearRxBuffer
 604              		.thumb
 605              		.thumb_func
 606              		.type	UART_ClearRxBuffer, %function
 607              	UART_ClearRxBuffer:
 608              	.LFB12:
 739:.\Generated_Source\PSoC5/UART.c **** 
 740:.\Generated_Source\PSoC5/UART.c **** 
 741:.\Generated_Source\PSoC5/UART.c ****     /*******************************************************************************
 742:.\Generated_Source\PSoC5/UART.c ****     * Function Name: UART_ClearRxBuffer
 743:.\Generated_Source\PSoC5/UART.c ****     ********************************************************************************
 744:.\Generated_Source\PSoC5/UART.c ****     *
 745:.\Generated_Source\PSoC5/UART.c ****     * Summary:
 746:.\Generated_Source\PSoC5/UART.c ****     *  Clears the RX RAM buffer by setting the read and write pointers both to zero.
 747:.\Generated_Source\PSoC5/UART.c ****     *  Clears hardware RX FIFO.
 748:.\Generated_Source\PSoC5/UART.c ****     *
 749:.\Generated_Source\PSoC5/UART.c ****     * Parameters:
 750:.\Generated_Source\PSoC5/UART.c ****     *  None.
 751:.\Generated_Source\PSoC5/UART.c ****     *
 752:.\Generated_Source\PSoC5/UART.c ****     * Return:
 753:.\Generated_Source\PSoC5/UART.c ****     *  None.
 754:.\Generated_Source\PSoC5/UART.c ****     *
 755:.\Generated_Source\PSoC5/UART.c ****     * Global Variables:
 756:.\Generated_Source\PSoC5/UART.c ****     *  UART_rxBufferWrite - cleared to zero. 
ARM GAS  C:\DOCUME~1\student\LOCALS~1\Temp\ccbLgMpg.s 			page 25


 757:.\Generated_Source\PSoC5/UART.c ****     *  UART_rxBufferRead - cleared to zero.
 758:.\Generated_Source\PSoC5/UART.c ****     *  UART_rxBufferLoopDetect - cleared to zero. 
 759:.\Generated_Source\PSoC5/UART.c ****     *  UART_rxBufferOverflow - cleared to zero. 
 760:.\Generated_Source\PSoC5/UART.c ****     *
 761:.\Generated_Source\PSoC5/UART.c ****     * Reentrant:
 762:.\Generated_Source\PSoC5/UART.c ****     *  No.
 763:.\Generated_Source\PSoC5/UART.c ****     *
 764:.\Generated_Source\PSoC5/UART.c ****     * Theory:
 765:.\Generated_Source\PSoC5/UART.c ****     *  Setting the pointers to zero makes the system believe there is no data to 
 766:.\Generated_Source\PSoC5/UART.c ****     *  read and writing will resume at address 0 overwriting any data that may 
 767:.\Generated_Source\PSoC5/UART.c ****     *  have remained in the RAM.
 768:.\Generated_Source\PSoC5/UART.c ****     *
 769:.\Generated_Source\PSoC5/UART.c ****     * Side Effects:
 770:.\Generated_Source\PSoC5/UART.c ****     *  Any received data not read from the RAM or FIFO buffer will be lost.
 771:.\Generated_Source\PSoC5/UART.c ****     *******************************************************************************/
 772:.\Generated_Source\PSoC5/UART.c ****     void UART_ClearRxBuffer(void) 
 773:.\Generated_Source\PSoC5/UART.c ****     {
 609              		.loc 1 773 0
 610              		.cfi_startproc
 611              		@ args = 0, pretend = 0, frame = 8
 612              		@ frame_needed = 1, uses_anonymous_args = 0
 613 0000 80B5     		push	{r7, lr}
 614              	.LCFI32:
 615              		.cfi_def_cfa_offset 8
 616 0002 82B0     		sub	sp, sp, #8
 617              	.LCFI33:
 618              		.cfi_def_cfa_offset 16
 619 0004 00AF     		add	r7, sp, #0
 620              		.cfi_offset 14, -4
 621              		.cfi_offset 7, -8
 622              	.LCFI34:
 623              		.cfi_def_cfa_register 7
 774:.\Generated_Source\PSoC5/UART.c ****         uint8 enableInterrupts;
 775:.\Generated_Source\PSoC5/UART.c ****         
 776:.\Generated_Source\PSoC5/UART.c ****         /* clear the HW FIFO */
 777:.\Generated_Source\PSoC5/UART.c ****         /* Enter critical section */
 778:.\Generated_Source\PSoC5/UART.c ****         enableInterrupts = CyEnterCriticalSection();        
 624              		.loc 1 778 0
 625 0006 FFF7FEFF 		bl	CyEnterCriticalSection
 626 000a 0346     		mov	r3, r0
 627 000c FB71     		strb	r3, [r7, #7]
 779:.\Generated_Source\PSoC5/UART.c ****         UART_RXDATA_AUX_CTL_REG |=  UART_RX_FIFO_CLR;
 628              		.loc 1 779 0
 629 000e 46F29F43 		movw	r3, #:lower16:1073767583
 630 0012 C4F20003 		movt	r3, #:upper16:1073767583
 631 0016 46F29F42 		movw	r2, #:lower16:1073767583
 632 001a C4F20002 		movt	r2, #:upper16:1073767583
 633 001e 1278     		ldrb	r2, [r2, #0]
 634 0020 D2B2     		uxtb	r2, r2
 635 0022 42F00102 		orr	r2, r2, #1
 636 0026 D2B2     		uxtb	r2, r2
 637 0028 1A70     		strb	r2, [r3, #0]
 780:.\Generated_Source\PSoC5/UART.c ****         UART_RXDATA_AUX_CTL_REG &= ~UART_RX_FIFO_CLR;
 638              		.loc 1 780 0
 639 002a 46F29F43 		movw	r3, #:lower16:1073767583
 640 002e C4F20003 		movt	r3, #:upper16:1073767583
 641 0032 46F29F42 		movw	r2, #:lower16:1073767583
ARM GAS  C:\DOCUME~1\student\LOCALS~1\Temp\ccbLgMpg.s 			page 26


 642 0036 C4F20002 		movt	r2, #:upper16:1073767583
 643 003a 1278     		ldrb	r2, [r2, #0]
 644 003c D2B2     		uxtb	r2, r2
 645 003e 02F0FE02 		and	r2, r2, #254
 646 0042 1A70     		strb	r2, [r3, #0]
 781:.\Generated_Source\PSoC5/UART.c ****         /* Exit critical section */
 782:.\Generated_Source\PSoC5/UART.c ****         CyExitCriticalSection(enableInterrupts);
 647              		.loc 1 782 0
 648 0044 FB79     		ldrb	r3, [r7, #7]	@ zero_extendqisi2
 649 0046 1846     		mov	r0, r3
 650 0048 FFF7FEFF 		bl	CyExitCriticalSection
 783:.\Generated_Source\PSoC5/UART.c ****         
 784:.\Generated_Source\PSoC5/UART.c ****         #if(UART_RXBUFFERSIZE > UART_FIFO_LENGTH)
 785:.\Generated_Source\PSoC5/UART.c ****             /* Disable Rx interrupt. */
 786:.\Generated_Source\PSoC5/UART.c ****             /* Protect variables that could change on interrupt. */
 787:.\Generated_Source\PSoC5/UART.c ****             #if(UART_RX_INTERRUPT_ENABLED)
 788:.\Generated_Source\PSoC5/UART.c ****                 UART_DisableRxInt();
 789:.\Generated_Source\PSoC5/UART.c ****             #endif /* End UART_RX_INTERRUPT_ENABLED */
 790:.\Generated_Source\PSoC5/UART.c **** 
 791:.\Generated_Source\PSoC5/UART.c ****             UART_rxBufferRead = 0u;
 792:.\Generated_Source\PSoC5/UART.c ****             UART_rxBufferWrite = 0u;
 793:.\Generated_Source\PSoC5/UART.c ****             UART_rxBufferLoopDetect = 0u;
 794:.\Generated_Source\PSoC5/UART.c ****             UART_rxBufferOverflow = 0u;
 795:.\Generated_Source\PSoC5/UART.c **** 
 796:.\Generated_Source\PSoC5/UART.c ****             /* Enable Rx interrupt. */
 797:.\Generated_Source\PSoC5/UART.c ****             #if(UART_RX_INTERRUPT_ENABLED)
 798:.\Generated_Source\PSoC5/UART.c ****                 UART_EnableRxInt();
 799:.\Generated_Source\PSoC5/UART.c ****             #endif /* End UART_RX_INTERRUPT_ENABLED */
 800:.\Generated_Source\PSoC5/UART.c ****         #endif /* End UART_RXBUFFERSIZE > UART_FIFO_LENGTH */
 801:.\Generated_Source\PSoC5/UART.c ****         
 802:.\Generated_Source\PSoC5/UART.c ****     }
 651              		.loc 1 802 0
 652 004c 07F10807 		add	r7, r7, #8
 653 0050 BD46     		mov	sp, r7
 654 0052 80BD     		pop	{r7, pc}
 655              		.cfi_endproc
 656              	.LFE12:
 657              		.size	UART_ClearRxBuffer, .-UART_ClearRxBuffer
 658              		.section	.text.UART_SetRxAddressMode,"ax",%progbits
 659              		.align	2
 660              		.global	UART_SetRxAddressMode
 661              		.thumb
 662              		.thumb_func
 663              		.type	UART_SetRxAddressMode, %function
 664              	UART_SetRxAddressMode:
 665              	.LFB13:
 803:.\Generated_Source\PSoC5/UART.c **** 
 804:.\Generated_Source\PSoC5/UART.c **** 
 805:.\Generated_Source\PSoC5/UART.c ****     /*******************************************************************************
 806:.\Generated_Source\PSoC5/UART.c ****     * Function Name: UART_SetRxAddressMode
 807:.\Generated_Source\PSoC5/UART.c ****     ********************************************************************************
 808:.\Generated_Source\PSoC5/UART.c ****     *
 809:.\Generated_Source\PSoC5/UART.c ****     * Summary:
 810:.\Generated_Source\PSoC5/UART.c ****     *  Set the receive addressing mode
 811:.\Generated_Source\PSoC5/UART.c ****     *
 812:.\Generated_Source\PSoC5/UART.c ****     * Parameters:
 813:.\Generated_Source\PSoC5/UART.c ****     *  addressMode: Enumerated value indicating the mode of RX addressing
ARM GAS  C:\DOCUME~1\student\LOCALS~1\Temp\ccbLgMpg.s 			page 27


 814:.\Generated_Source\PSoC5/UART.c ****     *  UART__B_UART__AM_SW_BYTE_BYTE -  Software Byte-by-Byte address 
 815:.\Generated_Source\PSoC5/UART.c ****     *                                               detection
 816:.\Generated_Source\PSoC5/UART.c ****     *  UART__B_UART__AM_SW_DETECT_TO_BUFFER - Software Detect to Buffer 
 817:.\Generated_Source\PSoC5/UART.c ****     *                                               address detection
 818:.\Generated_Source\PSoC5/UART.c ****     *  UART__B_UART__AM_HW_BYTE_BY_BYTE - Hardware Byte-by-Byte address 
 819:.\Generated_Source\PSoC5/UART.c ****     *                                               detection
 820:.\Generated_Source\PSoC5/UART.c ****     *  UART__B_UART__AM_HW_DETECT_TO_BUFFER - Hardware Detect to Buffer 
 821:.\Generated_Source\PSoC5/UART.c ****     *                                               address detection
 822:.\Generated_Source\PSoC5/UART.c ****     *  UART__B_UART__AM_NONE - No address detection
 823:.\Generated_Source\PSoC5/UART.c ****     *
 824:.\Generated_Source\PSoC5/UART.c ****     * Return:
 825:.\Generated_Source\PSoC5/UART.c ****     *  None.
 826:.\Generated_Source\PSoC5/UART.c ****     *
 827:.\Generated_Source\PSoC5/UART.c ****     * Global Variables:
 828:.\Generated_Source\PSoC5/UART.c ****     *  UART_rxAddressMode - the parameter stored in this variable for 
 829:.\Generated_Source\PSoC5/UART.c ****     *   the farther usage in RX ISR.
 830:.\Generated_Source\PSoC5/UART.c ****     *  UART_rxAddressDetected - set to initial state (0).
 831:.\Generated_Source\PSoC5/UART.c ****     *
 832:.\Generated_Source\PSoC5/UART.c ****     *******************************************************************************/
 833:.\Generated_Source\PSoC5/UART.c ****     void UART_SetRxAddressMode(uint8 addressMode)  
 834:.\Generated_Source\PSoC5/UART.c ****                                                         
 835:.\Generated_Source\PSoC5/UART.c ****     {
 666              		.loc 1 835 0
 667              		.cfi_startproc
 668              		@ args = 0, pretend = 0, frame = 8
 669              		@ frame_needed = 1, uses_anonymous_args = 0
 670              		@ link register save eliminated.
 671 0000 80B4     		push	{r7}
 672              	.LCFI35:
 673              		.cfi_def_cfa_offset 4
 674 0002 83B0     		sub	sp, sp, #12
 675              	.LCFI36:
 676              		.cfi_def_cfa_offset 16
 677 0004 00AF     		add	r7, sp, #0
 678              		.cfi_offset 7, -4
 679              	.LCFI37:
 680              		.cfi_def_cfa_register 7
 681 0006 0346     		mov	r3, r0
 682 0008 FB71     		strb	r3, [r7, #7]
 836:.\Generated_Source\PSoC5/UART.c ****         #if(UART_RXHW_ADDRESS_ENABLED)
 837:.\Generated_Source\PSoC5/UART.c ****             #if(UART_CONTROL_REG_REMOVED)
 838:.\Generated_Source\PSoC5/UART.c ****                 addressMode = addressMode;
 839:.\Generated_Source\PSoC5/UART.c ****             #else /* UART_CONTROL_REG_REMOVED */
 840:.\Generated_Source\PSoC5/UART.c ****                 uint8 tmpCtrl = 0u;
 841:.\Generated_Source\PSoC5/UART.c ****                 tmpCtrl = UART_CONTROL_REG & ~UART_CTRL_RXADDR_MODE_MASK;
 842:.\Generated_Source\PSoC5/UART.c ****                 tmpCtrl |= ((addressMode << UART_CTRL_RXADDR_MODE0_SHIFT) & 
 843:.\Generated_Source\PSoC5/UART.c ****                            UART_CTRL_RXADDR_MODE_MASK);
 844:.\Generated_Source\PSoC5/UART.c ****                 UART_CONTROL_REG = tmpCtrl;
 845:.\Generated_Source\PSoC5/UART.c ****                 #if(UART_RX_INTERRUPT_ENABLED && \
 846:.\Generated_Source\PSoC5/UART.c ****                    (UART_RXBUFFERSIZE > UART_FIFO_LENGTH) )
 847:.\Generated_Source\PSoC5/UART.c ****                     UART_rxAddressMode = addressMode;
 848:.\Generated_Source\PSoC5/UART.c ****                     UART_rxAddressDetected = 0u;
 849:.\Generated_Source\PSoC5/UART.c ****                 #endif /* End UART_RXBUFFERSIZE > UART_FIFO_LENGTH*/   
 850:.\Generated_Source\PSoC5/UART.c ****             #endif /* End UART_CONTROL_REG_REMOVED */
 851:.\Generated_Source\PSoC5/UART.c ****         #else /* UART_RXHW_ADDRESS_ENABLED */
 852:.\Generated_Source\PSoC5/UART.c ****             addressMode = addressMode;
 853:.\Generated_Source\PSoC5/UART.c ****         #endif /* End UART_RXHW_ADDRESS_ENABLED */
ARM GAS  C:\DOCUME~1\student\LOCALS~1\Temp\ccbLgMpg.s 			page 28


 854:.\Generated_Source\PSoC5/UART.c ****     }
 683              		.loc 1 854 0
 684 000a 07F10C07 		add	r7, r7, #12
 685 000e BD46     		mov	sp, r7
 686 0010 80BC     		pop	{r7}
 687 0012 7047     		bx	lr
 688              		.cfi_endproc
 689              	.LFE13:
 690              		.size	UART_SetRxAddressMode, .-UART_SetRxAddressMode
 691              		.section	.text.UART_SetRxAddress1,"ax",%progbits
 692              		.align	2
 693              		.global	UART_SetRxAddress1
 694              		.thumb
 695              		.thumb_func
 696              		.type	UART_SetRxAddress1, %function
 697              	UART_SetRxAddress1:
 698              	.LFB14:
 855:.\Generated_Source\PSoC5/UART.c **** 
 856:.\Generated_Source\PSoC5/UART.c **** 
 857:.\Generated_Source\PSoC5/UART.c ****     /*******************************************************************************
 858:.\Generated_Source\PSoC5/UART.c ****     * Function Name: UART_SetRxAddress1
 859:.\Generated_Source\PSoC5/UART.c ****     ********************************************************************************
 860:.\Generated_Source\PSoC5/UART.c ****     *
 861:.\Generated_Source\PSoC5/UART.c ****     * Summary:
 862:.\Generated_Source\PSoC5/UART.c ****     *  Set the first hardware address compare value
 863:.\Generated_Source\PSoC5/UART.c ****     *
 864:.\Generated_Source\PSoC5/UART.c ****     * Parameters:
 865:.\Generated_Source\PSoC5/UART.c ****     *  address
 866:.\Generated_Source\PSoC5/UART.c ****     *
 867:.\Generated_Source\PSoC5/UART.c ****     * Return:
 868:.\Generated_Source\PSoC5/UART.c ****     *  None.
 869:.\Generated_Source\PSoC5/UART.c ****     *
 870:.\Generated_Source\PSoC5/UART.c ****     *******************************************************************************/
 871:.\Generated_Source\PSoC5/UART.c ****     void UART_SetRxAddress1(uint8 address) 
 872:.\Generated_Source\PSoC5/UART.c **** 
 873:.\Generated_Source\PSoC5/UART.c ****     {
 699              		.loc 1 873 0
 700              		.cfi_startproc
 701              		@ args = 0, pretend = 0, frame = 8
 702              		@ frame_needed = 1, uses_anonymous_args = 0
 703              		@ link register save eliminated.
 704 0000 80B4     		push	{r7}
 705              	.LCFI38:
 706              		.cfi_def_cfa_offset 4
 707 0002 83B0     		sub	sp, sp, #12
 708              	.LCFI39:
 709              		.cfi_def_cfa_offset 16
 710 0004 00AF     		add	r7, sp, #0
 711              		.cfi_offset 7, -4
 712              	.LCFI40:
 713              		.cfi_def_cfa_register 7
 714 0006 0346     		mov	r3, r0
 715 0008 FB71     		strb	r3, [r7, #7]
 874:.\Generated_Source\PSoC5/UART.c ****         UART_RXADDRESS1_REG = address;
 716              		.loc 1 874 0
 717 000a 46F22F43 		movw	r3, #:lower16:1073767471
 718 000e C4F20003 		movt	r3, #:upper16:1073767471
ARM GAS  C:\DOCUME~1\student\LOCALS~1\Temp\ccbLgMpg.s 			page 29


 719 0012 FA79     		ldrb	r2, [r7, #7]
 720 0014 1A70     		strb	r2, [r3, #0]
 875:.\Generated_Source\PSoC5/UART.c ****     }
 721              		.loc 1 875 0
 722 0016 07F10C07 		add	r7, r7, #12
 723 001a BD46     		mov	sp, r7
 724 001c 80BC     		pop	{r7}
 725 001e 7047     		bx	lr
 726              		.cfi_endproc
 727              	.LFE14:
 728              		.size	UART_SetRxAddress1, .-UART_SetRxAddress1
 729              		.section	.text.UART_SetRxAddress2,"ax",%progbits
 730              		.align	2
 731              		.global	UART_SetRxAddress2
 732              		.thumb
 733              		.thumb_func
 734              		.type	UART_SetRxAddress2, %function
 735              	UART_SetRxAddress2:
 736              	.LFB15:
 876:.\Generated_Source\PSoC5/UART.c **** 
 877:.\Generated_Source\PSoC5/UART.c **** 
 878:.\Generated_Source\PSoC5/UART.c ****     /*******************************************************************************
 879:.\Generated_Source\PSoC5/UART.c ****     * Function Name: UART_SetRxAddress2
 880:.\Generated_Source\PSoC5/UART.c ****     ********************************************************************************
 881:.\Generated_Source\PSoC5/UART.c ****     *
 882:.\Generated_Source\PSoC5/UART.c ****     * Summary:
 883:.\Generated_Source\PSoC5/UART.c ****     *  Set the second hardware address compare value
 884:.\Generated_Source\PSoC5/UART.c ****     *
 885:.\Generated_Source\PSoC5/UART.c ****     * Parameters:
 886:.\Generated_Source\PSoC5/UART.c ****     *  address
 887:.\Generated_Source\PSoC5/UART.c ****     *
 888:.\Generated_Source\PSoC5/UART.c ****     * Return:
 889:.\Generated_Source\PSoC5/UART.c ****     *  None.
 890:.\Generated_Source\PSoC5/UART.c ****     *
 891:.\Generated_Source\PSoC5/UART.c ****     *******************************************************************************/
 892:.\Generated_Source\PSoC5/UART.c ****     void UART_SetRxAddress2(uint8 address) 
 893:.\Generated_Source\PSoC5/UART.c ****     {
 737              		.loc 1 893 0
 738              		.cfi_startproc
 739              		@ args = 0, pretend = 0, frame = 8
 740              		@ frame_needed = 1, uses_anonymous_args = 0
 741              		@ link register save eliminated.
 742 0000 80B4     		push	{r7}
 743              	.LCFI41:
 744              		.cfi_def_cfa_offset 4
 745 0002 83B0     		sub	sp, sp, #12
 746              	.LCFI42:
 747              		.cfi_def_cfa_offset 16
 748 0004 00AF     		add	r7, sp, #0
 749              		.cfi_offset 7, -4
 750              	.LCFI43:
 751              		.cfi_def_cfa_register 7
 752 0006 0346     		mov	r3, r0
 753 0008 FB71     		strb	r3, [r7, #7]
 894:.\Generated_Source\PSoC5/UART.c ****         UART_RXADDRESS2_REG = address;
 754              		.loc 1 894 0
 755 000a 46F23F43 		movw	r3, #:lower16:1073767487
ARM GAS  C:\DOCUME~1\student\LOCALS~1\Temp\ccbLgMpg.s 			page 30


 756 000e C4F20003 		movt	r3, #:upper16:1073767487
 757 0012 FA79     		ldrb	r2, [r7, #7]
 758 0014 1A70     		strb	r2, [r3, #0]
 895:.\Generated_Source\PSoC5/UART.c ****     }
 759              		.loc 1 895 0
 760 0016 07F10C07 		add	r7, r7, #12
 761 001a BD46     		mov	sp, r7
 762 001c 80BC     		pop	{r7}
 763 001e 7047     		bx	lr
 764              		.cfi_endproc
 765              	.LFE15:
 766              		.size	UART_SetRxAddress2, .-UART_SetRxAddress2
 767              		.section	.text.UART_SetTxInterruptMode,"ax",%progbits
 768              		.align	2
 769              		.global	UART_SetTxInterruptMode
 770              		.thumb
 771              		.thumb_func
 772              		.type	UART_SetTxInterruptMode, %function
 773              	UART_SetTxInterruptMode:
 774              	.LFB16:
 896:.\Generated_Source\PSoC5/UART.c ****         
 897:.\Generated_Source\PSoC5/UART.c **** #endif  /* UART_RX_ENABLED || UART_HD_ENABLED*/
 898:.\Generated_Source\PSoC5/UART.c **** 
 899:.\Generated_Source\PSoC5/UART.c **** 
 900:.\Generated_Source\PSoC5/UART.c **** #if( (UART_TX_ENABLED) || (UART_HD_ENABLED) )
 901:.\Generated_Source\PSoC5/UART.c **** 
 902:.\Generated_Source\PSoC5/UART.c ****     #if(UART_TX_INTERRUPT_ENABLED)
 903:.\Generated_Source\PSoC5/UART.c **** 
 904:.\Generated_Source\PSoC5/UART.c ****         /*******************************************************************************
 905:.\Generated_Source\PSoC5/UART.c ****         * Function Name: UART_EnableTxInt
 906:.\Generated_Source\PSoC5/UART.c ****         ********************************************************************************
 907:.\Generated_Source\PSoC5/UART.c ****         *
 908:.\Generated_Source\PSoC5/UART.c ****         * Summary:
 909:.\Generated_Source\PSoC5/UART.c ****         *  Enable TX interrupt generation
 910:.\Generated_Source\PSoC5/UART.c ****         *
 911:.\Generated_Source\PSoC5/UART.c ****         * Parameters:
 912:.\Generated_Source\PSoC5/UART.c ****         *  None.
 913:.\Generated_Source\PSoC5/UART.c ****         *
 914:.\Generated_Source\PSoC5/UART.c ****         * Return:
 915:.\Generated_Source\PSoC5/UART.c ****         *  None.
 916:.\Generated_Source\PSoC5/UART.c ****         *
 917:.\Generated_Source\PSoC5/UART.c ****         * Theory:
 918:.\Generated_Source\PSoC5/UART.c ****         *  Enable the interrupt output -or- the interrupt component itself
 919:.\Generated_Source\PSoC5/UART.c ****         *
 920:.\Generated_Source\PSoC5/UART.c ****         *******************************************************************************/
 921:.\Generated_Source\PSoC5/UART.c ****         void UART_EnableTxInt(void) 
 922:.\Generated_Source\PSoC5/UART.c ****         {
 923:.\Generated_Source\PSoC5/UART.c ****             CyIntEnable(UART_TX_VECT_NUM);
 924:.\Generated_Source\PSoC5/UART.c ****         }
 925:.\Generated_Source\PSoC5/UART.c **** 
 926:.\Generated_Source\PSoC5/UART.c **** 
 927:.\Generated_Source\PSoC5/UART.c ****         /*******************************************************************************
 928:.\Generated_Source\PSoC5/UART.c ****         * Function Name: UART_DisableTxInt
 929:.\Generated_Source\PSoC5/UART.c ****         ********************************************************************************
 930:.\Generated_Source\PSoC5/UART.c ****         *
 931:.\Generated_Source\PSoC5/UART.c ****         * Summary:
 932:.\Generated_Source\PSoC5/UART.c ****         *  Disable TX interrupt generation
ARM GAS  C:\DOCUME~1\student\LOCALS~1\Temp\ccbLgMpg.s 			page 31


 933:.\Generated_Source\PSoC5/UART.c ****         *
 934:.\Generated_Source\PSoC5/UART.c ****         * Parameters:
 935:.\Generated_Source\PSoC5/UART.c ****         *  None.
 936:.\Generated_Source\PSoC5/UART.c ****         *
 937:.\Generated_Source\PSoC5/UART.c ****         * Return:
 938:.\Generated_Source\PSoC5/UART.c ****         *  None.
 939:.\Generated_Source\PSoC5/UART.c ****         *
 940:.\Generated_Source\PSoC5/UART.c ****         * Theory:
 941:.\Generated_Source\PSoC5/UART.c ****         *  Disable the interrupt output -or- the interrupt component itself
 942:.\Generated_Source\PSoC5/UART.c ****         *
 943:.\Generated_Source\PSoC5/UART.c ****         *******************************************************************************/
 944:.\Generated_Source\PSoC5/UART.c ****         void UART_DisableTxInt(void) 
 945:.\Generated_Source\PSoC5/UART.c ****         {
 946:.\Generated_Source\PSoC5/UART.c ****             CyIntDisable(UART_TX_VECT_NUM);
 947:.\Generated_Source\PSoC5/UART.c ****         }
 948:.\Generated_Source\PSoC5/UART.c **** 
 949:.\Generated_Source\PSoC5/UART.c ****     #endif /* UART_TX_INTERRUPT_ENABLED */
 950:.\Generated_Source\PSoC5/UART.c **** 
 951:.\Generated_Source\PSoC5/UART.c **** 
 952:.\Generated_Source\PSoC5/UART.c ****     /*******************************************************************************
 953:.\Generated_Source\PSoC5/UART.c ****     * Function Name: UART_SetTxInterruptMode
 954:.\Generated_Source\PSoC5/UART.c ****     ********************************************************************************
 955:.\Generated_Source\PSoC5/UART.c ****     *
 956:.\Generated_Source\PSoC5/UART.c ****     * Summary:
 957:.\Generated_Source\PSoC5/UART.c ****     *  Configure which status bits trigger an interrupt event
 958:.\Generated_Source\PSoC5/UART.c ****     *
 959:.\Generated_Source\PSoC5/UART.c ****     * Parameters:
 960:.\Generated_Source\PSoC5/UART.c ****     *  intSrc: An or'd combination of the desired status bit masks (defined in
 961:.\Generated_Source\PSoC5/UART.c ****     *          the header file)
 962:.\Generated_Source\PSoC5/UART.c ****     *
 963:.\Generated_Source\PSoC5/UART.c ****     * Return:
 964:.\Generated_Source\PSoC5/UART.c ****     *  None.
 965:.\Generated_Source\PSoC5/UART.c ****     *
 966:.\Generated_Source\PSoC5/UART.c ****     * Theory:
 967:.\Generated_Source\PSoC5/UART.c ****     *  Enables the output of specific status bits to the interrupt controller
 968:.\Generated_Source\PSoC5/UART.c ****     *
 969:.\Generated_Source\PSoC5/UART.c ****     *******************************************************************************/
 970:.\Generated_Source\PSoC5/UART.c ****     void UART_SetTxInterruptMode(uint8 intSrc) 
 971:.\Generated_Source\PSoC5/UART.c ****     {
 775              		.loc 1 971 0
 776              		.cfi_startproc
 777              		@ args = 0, pretend = 0, frame = 8
 778              		@ frame_needed = 1, uses_anonymous_args = 0
 779              		@ link register save eliminated.
 780 0000 80B4     		push	{r7}
 781              	.LCFI44:
 782              		.cfi_def_cfa_offset 4
 783 0002 83B0     		sub	sp, sp, #12
 784              	.LCFI45:
 785              		.cfi_def_cfa_offset 16
 786 0004 00AF     		add	r7, sp, #0
 787              		.cfi_offset 7, -4
 788              	.LCFI46:
 789              		.cfi_def_cfa_register 7
 790 0006 0346     		mov	r3, r0
 791 0008 FB71     		strb	r3, [r7, #7]
 972:.\Generated_Source\PSoC5/UART.c ****         UART_TXSTATUS_MASK_REG = intSrc;
ARM GAS  C:\DOCUME~1\student\LOCALS~1\Temp\ccbLgMpg.s 			page 32


 792              		.loc 1 972 0
 793 000a 46F28E43 		movw	r3, #:lower16:1073767566
 794 000e C4F20003 		movt	r3, #:upper16:1073767566
 795 0012 FA79     		ldrb	r2, [r7, #7]
 796 0014 1A70     		strb	r2, [r3, #0]
 973:.\Generated_Source\PSoC5/UART.c ****     }
 797              		.loc 1 973 0
 798 0016 07F10C07 		add	r7, r7, #12
 799 001a BD46     		mov	sp, r7
 800 001c 80BC     		pop	{r7}
 801 001e 7047     		bx	lr
 802              		.cfi_endproc
 803              	.LFE16:
 804              		.size	UART_SetTxInterruptMode, .-UART_SetTxInterruptMode
 805              		.section	.text.UART_WriteTxData,"ax",%progbits
 806              		.align	2
 807              		.global	UART_WriteTxData
 808              		.thumb
 809              		.thumb_func
 810              		.type	UART_WriteTxData, %function
 811              	UART_WriteTxData:
 812              	.LFB17:
 974:.\Generated_Source\PSoC5/UART.c **** 
 975:.\Generated_Source\PSoC5/UART.c **** 
 976:.\Generated_Source\PSoC5/UART.c ****     /*******************************************************************************
 977:.\Generated_Source\PSoC5/UART.c ****     * Function Name: UART_WriteTxData
 978:.\Generated_Source\PSoC5/UART.c ****     ********************************************************************************
 979:.\Generated_Source\PSoC5/UART.c ****     *
 980:.\Generated_Source\PSoC5/UART.c ****     * Summary:
 981:.\Generated_Source\PSoC5/UART.c ****     *  Write a byte of data to the Transmit FIFO or TX buffer to be sent when the 
 982:.\Generated_Source\PSoC5/UART.c ****     *  bus is available. WriteTxData sends a byte without checking for buffer room 
 983:.\Generated_Source\PSoC5/UART.c ****     *  or status. It is up to the user to separately check status.    
 984:.\Generated_Source\PSoC5/UART.c ****     *
 985:.\Generated_Source\PSoC5/UART.c ****     * Parameters:
 986:.\Generated_Source\PSoC5/UART.c ****     *  TXDataByte: byte of data to place in the transmit FIFO
 987:.\Generated_Source\PSoC5/UART.c ****     *
 988:.\Generated_Source\PSoC5/UART.c ****     * Return:
 989:.\Generated_Source\PSoC5/UART.c ****     * void
 990:.\Generated_Source\PSoC5/UART.c ****     *
 991:.\Generated_Source\PSoC5/UART.c ****     * Global Variables:
 992:.\Generated_Source\PSoC5/UART.c ****     *  UART_txBuffer - RAM buffer pointer for save data for transmission
 993:.\Generated_Source\PSoC5/UART.c ****     *  UART_txBufferWrite - cyclic index for write to txBuffer, 
 994:.\Generated_Source\PSoC5/UART.c ****     *    incremented after each byte saved to buffer.
 995:.\Generated_Source\PSoC5/UART.c ****     *  UART_txBufferRead - cyclic index for read from txBuffer, 
 996:.\Generated_Source\PSoC5/UART.c ****     *    checked to identify the condition to write to FIFO directly or to TX buffer
 997:.\Generated_Source\PSoC5/UART.c ****     *  UART_initVar - checked to identify that the component has been  
 998:.\Generated_Source\PSoC5/UART.c ****     *    initialized.
 999:.\Generated_Source\PSoC5/UART.c ****     *
1000:.\Generated_Source\PSoC5/UART.c ****     * Reentrant:
1001:.\Generated_Source\PSoC5/UART.c ****     *  No.
1002:.\Generated_Source\PSoC5/UART.c ****     *
1003:.\Generated_Source\PSoC5/UART.c ****     *******************************************************************************/
1004:.\Generated_Source\PSoC5/UART.c ****     void UART_WriteTxData(uint8 txDataByte) 
1005:.\Generated_Source\PSoC5/UART.c ****     {
 813              		.loc 1 1005 0
 814              		.cfi_startproc
 815              		@ args = 0, pretend = 0, frame = 8
ARM GAS  C:\DOCUME~1\student\LOCALS~1\Temp\ccbLgMpg.s 			page 33


 816              		@ frame_needed = 1, uses_anonymous_args = 0
 817              		@ link register save eliminated.
 818 0000 80B4     		push	{r7}
 819              	.LCFI47:
 820              		.cfi_def_cfa_offset 4
 821 0002 83B0     		sub	sp, sp, #12
 822              	.LCFI48:
 823              		.cfi_def_cfa_offset 16
 824 0004 00AF     		add	r7, sp, #0
 825              		.cfi_offset 7, -4
 826              	.LCFI49:
 827              		.cfi_def_cfa_register 7
 828 0006 0346     		mov	r3, r0
 829 0008 FB71     		strb	r3, [r7, #7]
1006:.\Generated_Source\PSoC5/UART.c ****         /* If not Initialized then skip this function*/
1007:.\Generated_Source\PSoC5/UART.c ****         if(UART_initVar != 0u)
 830              		.loc 1 1007 0
 831 000a 40F20003 		movw	r3, #:lower16:UART_initVar
 832 000e C0F20003 		movt	r3, #:upper16:UART_initVar
 833 0012 1B78     		ldrb	r3, [r3, #0]	@ zero_extendqisi2
 834 0014 002B     		cmp	r3, #0
 835 0016 05D0     		beq	.L41
1008:.\Generated_Source\PSoC5/UART.c ****         {
1009:.\Generated_Source\PSoC5/UART.c ****             #if(UART_TXBUFFERSIZE > UART_FIFO_LENGTH)
1010:.\Generated_Source\PSoC5/UART.c **** 
1011:.\Generated_Source\PSoC5/UART.c ****                 /* Disable Tx interrupt. */
1012:.\Generated_Source\PSoC5/UART.c ****                 /* Protect variables that could change on interrupt. */
1013:.\Generated_Source\PSoC5/UART.c ****                 #if(UART_TX_INTERRUPT_ENABLED)
1014:.\Generated_Source\PSoC5/UART.c ****                     UART_DisableTxInt();
1015:.\Generated_Source\PSoC5/UART.c ****                 #endif /* End UART_TX_INTERRUPT_ENABLED */
1016:.\Generated_Source\PSoC5/UART.c **** 
1017:.\Generated_Source\PSoC5/UART.c ****                 if( (UART_txBufferRead == UART_txBufferWrite) &&
1018:.\Generated_Source\PSoC5/UART.c ****                    !(UART_TXSTATUS_REG & UART_TX_STS_FIFO_FULL) )
1019:.\Generated_Source\PSoC5/UART.c ****                 {
1020:.\Generated_Source\PSoC5/UART.c ****                     /* Add directly to the FIFO. */
1021:.\Generated_Source\PSoC5/UART.c ****                     UART_TXDATA_REG = txDataByte;
1022:.\Generated_Source\PSoC5/UART.c ****                 }
1023:.\Generated_Source\PSoC5/UART.c ****                 else
1024:.\Generated_Source\PSoC5/UART.c ****                 {
1025:.\Generated_Source\PSoC5/UART.c ****                     if(UART_txBufferWrite >= UART_TXBUFFERSIZE)
1026:.\Generated_Source\PSoC5/UART.c ****                     {
1027:.\Generated_Source\PSoC5/UART.c ****                         UART_txBufferWrite = 0;
1028:.\Generated_Source\PSoC5/UART.c ****                     }
1029:.\Generated_Source\PSoC5/UART.c **** 
1030:.\Generated_Source\PSoC5/UART.c ****                     UART_txBuffer[UART_txBufferWrite] = txDataByte;
1031:.\Generated_Source\PSoC5/UART.c **** 
1032:.\Generated_Source\PSoC5/UART.c ****                     /* Add to the software buffer. */
1033:.\Generated_Source\PSoC5/UART.c ****                     UART_txBufferWrite++;
1034:.\Generated_Source\PSoC5/UART.c **** 
1035:.\Generated_Source\PSoC5/UART.c ****                 }
1036:.\Generated_Source\PSoC5/UART.c **** 
1037:.\Generated_Source\PSoC5/UART.c ****                 /* Enable Tx interrupt. */
1038:.\Generated_Source\PSoC5/UART.c ****                 #if(UART_TX_INTERRUPT_ENABLED)
1039:.\Generated_Source\PSoC5/UART.c ****                     UART_EnableTxInt();
1040:.\Generated_Source\PSoC5/UART.c ****                 #endif /* End UART_TX_INTERRUPT_ENABLED */
1041:.\Generated_Source\PSoC5/UART.c **** 
1042:.\Generated_Source\PSoC5/UART.c ****             #else /* UART_TXBUFFERSIZE > UART_FIFO_LENGTH */
ARM GAS  C:\DOCUME~1\student\LOCALS~1\Temp\ccbLgMpg.s 			page 34


1043:.\Generated_Source\PSoC5/UART.c **** 
1044:.\Generated_Source\PSoC5/UART.c ****                 /* Add directly to the FIFO. */
1045:.\Generated_Source\PSoC5/UART.c ****                 UART_TXDATA_REG = txDataByte;
 836              		.loc 1 1045 0
 837 0018 46F24B43 		movw	r3, #:lower16:1073767499
 838 001c C4F20003 		movt	r3, #:upper16:1073767499
 839 0020 FA79     		ldrb	r2, [r7, #7]
 840 0022 1A70     		strb	r2, [r3, #0]
 841              	.L41:
1046:.\Generated_Source\PSoC5/UART.c **** 
1047:.\Generated_Source\PSoC5/UART.c ****             #endif /* End UART_TXBUFFERSIZE > UART_FIFO_LENGTH */
1048:.\Generated_Source\PSoC5/UART.c ****         }
1049:.\Generated_Source\PSoC5/UART.c ****     }
 842              		.loc 1 1049 0
 843 0024 07F10C07 		add	r7, r7, #12
 844 0028 BD46     		mov	sp, r7
 845 002a 80BC     		pop	{r7}
 846 002c 7047     		bx	lr
 847              		.cfi_endproc
 848              	.LFE17:
 849              		.size	UART_WriteTxData, .-UART_WriteTxData
 850 002e 00BF     		.section	.text.UART_ReadTxStatus,"ax",%progbits
 851              		.align	2
 852              		.global	UART_ReadTxStatus
 853              		.thumb
 854              		.thumb_func
 855              		.type	UART_ReadTxStatus, %function
 856              	UART_ReadTxStatus:
 857              	.LFB18:
1050:.\Generated_Source\PSoC5/UART.c **** 
1051:.\Generated_Source\PSoC5/UART.c **** 
1052:.\Generated_Source\PSoC5/UART.c ****     /*******************************************************************************
1053:.\Generated_Source\PSoC5/UART.c ****     * Function Name: UART_ReadTxStatus
1054:.\Generated_Source\PSoC5/UART.c ****     ********************************************************************************
1055:.\Generated_Source\PSoC5/UART.c ****     *
1056:.\Generated_Source\PSoC5/UART.c ****     * Summary:
1057:.\Generated_Source\PSoC5/UART.c ****     *  Read the status register for the component
1058:.\Generated_Source\PSoC5/UART.c ****     *
1059:.\Generated_Source\PSoC5/UART.c ****     * Parameters:
1060:.\Generated_Source\PSoC5/UART.c ****     *  None.
1061:.\Generated_Source\PSoC5/UART.c ****     *
1062:.\Generated_Source\PSoC5/UART.c ****     * Return:
1063:.\Generated_Source\PSoC5/UART.c ****     *  Contents of the status register
1064:.\Generated_Source\PSoC5/UART.c ****     *
1065:.\Generated_Source\PSoC5/UART.c ****     * Theory:
1066:.\Generated_Source\PSoC5/UART.c ****     *  This function reads the status register which is clear on read. It is up to 
1067:.\Generated_Source\PSoC5/UART.c ****     *  the user to handle all bits in this return value accordingly, even if the bit 
1068:.\Generated_Source\PSoC5/UART.c ****     *  was not enabled as an interrupt source the event happened and must be handled
1069:.\Generated_Source\PSoC5/UART.c ****     *  accordingly.    
1070:.\Generated_Source\PSoC5/UART.c ****     *
1071:.\Generated_Source\PSoC5/UART.c ****     *******************************************************************************/
1072:.\Generated_Source\PSoC5/UART.c ****     uint8 UART_ReadTxStatus(void) 
1073:.\Generated_Source\PSoC5/UART.c ****     {
 858              		.loc 1 1073 0
 859              		.cfi_startproc
 860              		@ args = 0, pretend = 0, frame = 0
 861              		@ frame_needed = 1, uses_anonymous_args = 0
ARM GAS  C:\DOCUME~1\student\LOCALS~1\Temp\ccbLgMpg.s 			page 35


 862              		@ link register save eliminated.
 863 0000 80B4     		push	{r7}
 864              	.LCFI50:
 865              		.cfi_def_cfa_offset 4
 866 0002 00AF     		add	r7, sp, #0
 867              		.cfi_offset 7, -4
 868              	.LCFI51:
 869              		.cfi_def_cfa_register 7
1074:.\Generated_Source\PSoC5/UART.c ****         return(UART_TXSTATUS_REG);
 870              		.loc 1 1074 0
 871 0004 46F26E43 		movw	r3, #:lower16:1073767534
 872 0008 C4F20003 		movt	r3, #:upper16:1073767534
 873 000c 1B78     		ldrb	r3, [r3, #0]
 874 000e DBB2     		uxtb	r3, r3
1075:.\Generated_Source\PSoC5/UART.c ****     }
 875              		.loc 1 1075 0
 876 0010 1846     		mov	r0, r3
 877 0012 BD46     		mov	sp, r7
 878 0014 80BC     		pop	{r7}
 879 0016 7047     		bx	lr
 880              		.cfi_endproc
 881              	.LFE18:
 882              		.size	UART_ReadTxStatus, .-UART_ReadTxStatus
 883              		.section	.text.UART_PutChar,"ax",%progbits
 884              		.align	2
 885              		.global	UART_PutChar
 886              		.thumb
 887              		.thumb_func
 888              		.type	UART_PutChar, %function
 889              	UART_PutChar:
 890              	.LFB19:
1076:.\Generated_Source\PSoC5/UART.c **** 
1077:.\Generated_Source\PSoC5/UART.c **** 
1078:.\Generated_Source\PSoC5/UART.c ****     /*******************************************************************************
1079:.\Generated_Source\PSoC5/UART.c ****     * Function Name: UART_PutChar
1080:.\Generated_Source\PSoC5/UART.c ****     ********************************************************************************
1081:.\Generated_Source\PSoC5/UART.c ****     *
1082:.\Generated_Source\PSoC5/UART.c ****     * Summary:
1083:.\Generated_Source\PSoC5/UART.c ****     *  Wait to send byte until TX register or buffer has room.
1084:.\Generated_Source\PSoC5/UART.c ****     *
1085:.\Generated_Source\PSoC5/UART.c ****     * Parameters:
1086:.\Generated_Source\PSoC5/UART.c ****     *  txDataByte: The 8-bit data value to send across the UART.
1087:.\Generated_Source\PSoC5/UART.c ****     *
1088:.\Generated_Source\PSoC5/UART.c ****     * Return:
1089:.\Generated_Source\PSoC5/UART.c ****     *  None.
1090:.\Generated_Source\PSoC5/UART.c ****     *
1091:.\Generated_Source\PSoC5/UART.c ****     * Global Variables:
1092:.\Generated_Source\PSoC5/UART.c ****     *  UART_txBuffer - RAM buffer pointer for save data for transmission
1093:.\Generated_Source\PSoC5/UART.c ****     *  UART_txBufferWrite - cyclic index for write to txBuffer, 
1094:.\Generated_Source\PSoC5/UART.c ****     *     checked to identify free space in txBuffer and incremented after each byte 
1095:.\Generated_Source\PSoC5/UART.c ****     *     saved to buffer.
1096:.\Generated_Source\PSoC5/UART.c ****     *  UART_txBufferRead - cyclic index for read from txBuffer, 
1097:.\Generated_Source\PSoC5/UART.c ****     *     checked to identify free space in txBuffer.
1098:.\Generated_Source\PSoC5/UART.c ****     *  UART_initVar - checked to identify that the component has been  
1099:.\Generated_Source\PSoC5/UART.c ****     *     initialized.
1100:.\Generated_Source\PSoC5/UART.c ****     *
1101:.\Generated_Source\PSoC5/UART.c ****     * Reentrant:
ARM GAS  C:\DOCUME~1\student\LOCALS~1\Temp\ccbLgMpg.s 			page 36


1102:.\Generated_Source\PSoC5/UART.c ****     *  No.
1103:.\Generated_Source\PSoC5/UART.c ****     *
1104:.\Generated_Source\PSoC5/UART.c ****     * Theory:
1105:.\Generated_Source\PSoC5/UART.c ****     *  Allows the user to transmit any byte of data in a single transfer
1106:.\Generated_Source\PSoC5/UART.c ****     *
1107:.\Generated_Source\PSoC5/UART.c ****     *******************************************************************************/
1108:.\Generated_Source\PSoC5/UART.c ****     void UART_PutChar(uint8 txDataByte) 
1109:.\Generated_Source\PSoC5/UART.c ****     {
 891              		.loc 1 1109 0
 892              		.cfi_startproc
 893              		@ args = 0, pretend = 0, frame = 8
 894              		@ frame_needed = 1, uses_anonymous_args = 0
 895              		@ link register save eliminated.
 896 0000 80B4     		push	{r7}
 897              	.LCFI52:
 898              		.cfi_def_cfa_offset 4
 899 0002 83B0     		sub	sp, sp, #12
 900              	.LCFI53:
 901              		.cfi_def_cfa_offset 16
 902 0004 00AF     		add	r7, sp, #0
 903              		.cfi_offset 7, -4
 904              	.LCFI54:
 905              		.cfi_def_cfa_register 7
 906 0006 0346     		mov	r3, r0
 907 0008 FB71     		strb	r3, [r7, #7]
 908              	.L45:
1110:.\Generated_Source\PSoC5/UART.c ****             #if(UART_TXBUFFERSIZE > UART_FIFO_LENGTH)
1111:.\Generated_Source\PSoC5/UART.c **** 
1112:.\Generated_Source\PSoC5/UART.c ****                 /* Block if buffer is full, so we dont overwrite. */
1113:.\Generated_Source\PSoC5/UART.c ****                 while( UART_txBufferWrite == (UART_txBufferRead - 1u) ||
1114:.\Generated_Source\PSoC5/UART.c ****                     (uint8)(UART_txBufferWrite - UART_txBufferRead) ==
1115:.\Generated_Source\PSoC5/UART.c ****                     (uint8)(UART_TXBUFFERSIZE - 1u) )
1116:.\Generated_Source\PSoC5/UART.c ****                 {
1117:.\Generated_Source\PSoC5/UART.c ****                     /* Software buffer is full. */
1118:.\Generated_Source\PSoC5/UART.c ****                 }
1119:.\Generated_Source\PSoC5/UART.c ****                 /* Disable Tx interrupt. */
1120:.\Generated_Source\PSoC5/UART.c ****                 /* Protect variables that could change on interrupt. */
1121:.\Generated_Source\PSoC5/UART.c ****                 #if(UART_TX_INTERRUPT_ENABLED)
1122:.\Generated_Source\PSoC5/UART.c ****                     UART_DisableTxInt();
1123:.\Generated_Source\PSoC5/UART.c ****                 #endif /* End UART_TX_INTERRUPT_ENABLED */
1124:.\Generated_Source\PSoC5/UART.c **** 
1125:.\Generated_Source\PSoC5/UART.c ****                 if( (UART_txBufferRead == UART_txBufferWrite) &&
1126:.\Generated_Source\PSoC5/UART.c ****                    !(UART_TXSTATUS_REG & UART_TX_STS_FIFO_FULL) )
1127:.\Generated_Source\PSoC5/UART.c ****                 {
1128:.\Generated_Source\PSoC5/UART.c ****                     /* Add directly to the FIFO. */
1129:.\Generated_Source\PSoC5/UART.c ****                     UART_TXDATA_REG = txDataByte;
1130:.\Generated_Source\PSoC5/UART.c ****                 }
1131:.\Generated_Source\PSoC5/UART.c ****                 else
1132:.\Generated_Source\PSoC5/UART.c ****                 {
1133:.\Generated_Source\PSoC5/UART.c ****                     if(UART_txBufferWrite >= UART_TXBUFFERSIZE)
1134:.\Generated_Source\PSoC5/UART.c ****                     {
1135:.\Generated_Source\PSoC5/UART.c ****                         UART_txBufferWrite = 0;
1136:.\Generated_Source\PSoC5/UART.c ****                     }
1137:.\Generated_Source\PSoC5/UART.c **** 
1138:.\Generated_Source\PSoC5/UART.c ****                     UART_txBuffer[UART_txBufferWrite] = txDataByte;
1139:.\Generated_Source\PSoC5/UART.c **** 
1140:.\Generated_Source\PSoC5/UART.c ****                     /* Add to the software buffer. */
ARM GAS  C:\DOCUME~1\student\LOCALS~1\Temp\ccbLgMpg.s 			page 37


1141:.\Generated_Source\PSoC5/UART.c ****                     UART_txBufferWrite++;
1142:.\Generated_Source\PSoC5/UART.c **** 
1143:.\Generated_Source\PSoC5/UART.c ****                 }
1144:.\Generated_Source\PSoC5/UART.c **** 
1145:.\Generated_Source\PSoC5/UART.c ****                 /* Enable Rx interrupt. */
1146:.\Generated_Source\PSoC5/UART.c ****                 #if(UART_TX_INTERRUPT_ENABLED)
1147:.\Generated_Source\PSoC5/UART.c ****                     UART_EnableTxInt();
1148:.\Generated_Source\PSoC5/UART.c ****                 #endif /* End UART_TX_INTERRUPT_ENABLED */
1149:.\Generated_Source\PSoC5/UART.c **** 
1150:.\Generated_Source\PSoC5/UART.c ****             #else /* UART_TXBUFFERSIZE > UART_FIFO_LENGTH */
1151:.\Generated_Source\PSoC5/UART.c **** 
1152:.\Generated_Source\PSoC5/UART.c ****                 /* Block if there isnt room. */
1153:.\Generated_Source\PSoC5/UART.c ****                 while(UART_TXSTATUS_REG & UART_TX_STS_FIFO_FULL);
 909              		.loc 1 1153 0
 910 000a 46F26E43 		movw	r3, #:lower16:1073767534
 911 000e C4F20003 		movt	r3, #:upper16:1073767534
 912 0012 1B78     		ldrb	r3, [r3, #0]
 913 0014 DBB2     		uxtb	r3, r3
 914 0016 03F00403 		and	r3, r3, #4
 915 001a 002B     		cmp	r3, #0
 916 001c F5D1     		bne	.L45
1154:.\Generated_Source\PSoC5/UART.c **** 
1155:.\Generated_Source\PSoC5/UART.c ****                 /* Add directly to the FIFO. */
1156:.\Generated_Source\PSoC5/UART.c ****                 UART_TXDATA_REG = txDataByte;
 917              		.loc 1 1156 0
 918 001e 46F24B43 		movw	r3, #:lower16:1073767499
 919 0022 C4F20003 		movt	r3, #:upper16:1073767499
 920 0026 FA79     		ldrb	r2, [r7, #7]
 921 0028 1A70     		strb	r2, [r3, #0]
1157:.\Generated_Source\PSoC5/UART.c **** 
1158:.\Generated_Source\PSoC5/UART.c ****             #endif /* End UART_TXBUFFERSIZE > UART_FIFO_LENGTH */
1159:.\Generated_Source\PSoC5/UART.c ****     }
 922              		.loc 1 1159 0
 923 002a 07F10C07 		add	r7, r7, #12
 924 002e BD46     		mov	sp, r7
 925 0030 80BC     		pop	{r7}
 926 0032 7047     		bx	lr
 927              		.cfi_endproc
 928              	.LFE19:
 929              		.size	UART_PutChar, .-UART_PutChar
 930              		.section	.text.UART_PutString,"ax",%progbits
 931              		.align	2
 932              		.global	UART_PutString
 933              		.thumb
 934              		.thumb_func
 935              		.type	UART_PutString, %function
 936              	UART_PutString:
 937              	.LFB20:
1160:.\Generated_Source\PSoC5/UART.c **** 
1161:.\Generated_Source\PSoC5/UART.c **** 
1162:.\Generated_Source\PSoC5/UART.c ****     /*******************************************************************************
1163:.\Generated_Source\PSoC5/UART.c ****     * Function Name: UART_PutString
1164:.\Generated_Source\PSoC5/UART.c ****     ********************************************************************************
1165:.\Generated_Source\PSoC5/UART.c ****     *
1166:.\Generated_Source\PSoC5/UART.c ****     * Summary:
1167:.\Generated_Source\PSoC5/UART.c ****     *  Write a Sequence of bytes on the Transmit line. Data comes from RAM or ROM.
1168:.\Generated_Source\PSoC5/UART.c ****     *
ARM GAS  C:\DOCUME~1\student\LOCALS~1\Temp\ccbLgMpg.s 			page 38


1169:.\Generated_Source\PSoC5/UART.c ****     * Parameters:
1170:.\Generated_Source\PSoC5/UART.c ****     *  string: char pointer to character string of Data to Send.
1171:.\Generated_Source\PSoC5/UART.c ****     *
1172:.\Generated_Source\PSoC5/UART.c ****     * Return:
1173:.\Generated_Source\PSoC5/UART.c ****     *  None.
1174:.\Generated_Source\PSoC5/UART.c ****     *
1175:.\Generated_Source\PSoC5/UART.c ****     * Global Variables:
1176:.\Generated_Source\PSoC5/UART.c ****     *  UART_initVar - checked to identify that the component has been  
1177:.\Generated_Source\PSoC5/UART.c ****     *     initialized.
1178:.\Generated_Source\PSoC5/UART.c ****     *
1179:.\Generated_Source\PSoC5/UART.c ****     * Reentrant:
1180:.\Generated_Source\PSoC5/UART.c ****     *  No.
1181:.\Generated_Source\PSoC5/UART.c ****     *
1182:.\Generated_Source\PSoC5/UART.c ****     * Theory:
1183:.\Generated_Source\PSoC5/UART.c ****     *  This function will block if there is not enough memory to place the whole 
1184:.\Generated_Source\PSoC5/UART.c ****     *  string, it will block until the entire string has been written to the 
1185:.\Generated_Source\PSoC5/UART.c ****     *  transmit buffer.
1186:.\Generated_Source\PSoC5/UART.c ****     *
1187:.\Generated_Source\PSoC5/UART.c ****     *******************************************************************************/
1188:.\Generated_Source\PSoC5/UART.c ****     void UART_PutString(char* string) 
1189:.\Generated_Source\PSoC5/UART.c ****     {
 938              		.loc 1 1189 0
 939              		.cfi_startproc
 940              		@ args = 0, pretend = 0, frame = 8
 941              		@ frame_needed = 1, uses_anonymous_args = 0
 942 0000 80B5     		push	{r7, lr}
 943              	.LCFI55:
 944              		.cfi_def_cfa_offset 8
 945 0002 82B0     		sub	sp, sp, #8
 946              	.LCFI56:
 947              		.cfi_def_cfa_offset 16
 948 0004 00AF     		add	r7, sp, #0
 949              		.cfi_offset 14, -4
 950              		.cfi_offset 7, -8
 951              	.LCFI57:
 952              		.cfi_def_cfa_register 7
 953 0006 7860     		str	r0, [r7, #4]
1190:.\Generated_Source\PSoC5/UART.c ****         /* If not Initialized then skip this function*/
1191:.\Generated_Source\PSoC5/UART.c ****         if(UART_initVar != 0u)
 954              		.loc 1 1191 0
 955 0008 40F20003 		movw	r3, #:lower16:UART_initVar
 956 000c C0F20003 		movt	r3, #:upper16:UART_initVar
 957 0010 1B78     		ldrb	r3, [r3, #0]	@ zero_extendqisi2
 958 0012 002B     		cmp	r3, #0
 959 0014 0DD0     		beq	.L51
1192:.\Generated_Source\PSoC5/UART.c ****         {
1193:.\Generated_Source\PSoC5/UART.c ****             /* This is a blocking function, it will not exit until all data is sent*/
1194:.\Generated_Source\PSoC5/UART.c ****             while(*string != 0u)
 960              		.loc 1 1194 0
 961 0016 08E0     		b	.L49
 962              	.L50:
1195:.\Generated_Source\PSoC5/UART.c ****             {
1196:.\Generated_Source\PSoC5/UART.c ****                 UART_PutChar(*string++);
 963              		.loc 1 1196 0
 964 0018 7B68     		ldr	r3, [r7, #4]
 965 001a 1B78     		ldrb	r3, [r3, #0]	@ zero_extendqisi2
 966 001c 7A68     		ldr	r2, [r7, #4]
ARM GAS  C:\DOCUME~1\student\LOCALS~1\Temp\ccbLgMpg.s 			page 39


 967 001e 02F10102 		add	r2, r2, #1
 968 0022 7A60     		str	r2, [r7, #4]
 969 0024 1846     		mov	r0, r3
 970 0026 FFF7FEFF 		bl	UART_PutChar
 971              	.L49:
 972              		.loc 1 1194 0
 973 002a 7B68     		ldr	r3, [r7, #4]
 974 002c 1B78     		ldrb	r3, [r3, #0]	@ zero_extendqisi2
 975 002e 002B     		cmp	r3, #0
 976 0030 F2D1     		bne	.L50
 977              	.L51:
1197:.\Generated_Source\PSoC5/UART.c ****             }
1198:.\Generated_Source\PSoC5/UART.c ****         }
1199:.\Generated_Source\PSoC5/UART.c ****     }
 978              		.loc 1 1199 0
 979 0032 07F10807 		add	r7, r7, #8
 980 0036 BD46     		mov	sp, r7
 981 0038 80BD     		pop	{r7, pc}
 982              		.cfi_endproc
 983              	.LFE20:
 984              		.size	UART_PutString, .-UART_PutString
 985 003a 00BF     		.section	.text.UART_PutArray,"ax",%progbits
 986              		.align	2
 987              		.global	UART_PutArray
 988              		.thumb
 989              		.thumb_func
 990              		.type	UART_PutArray, %function
 991              	UART_PutArray:
 992              	.LFB21:
1200:.\Generated_Source\PSoC5/UART.c **** 
1201:.\Generated_Source\PSoC5/UART.c **** 
1202:.\Generated_Source\PSoC5/UART.c ****     /*******************************************************************************
1203:.\Generated_Source\PSoC5/UART.c ****     * Function Name: UART_PutArray
1204:.\Generated_Source\PSoC5/UART.c ****     ********************************************************************************
1205:.\Generated_Source\PSoC5/UART.c ****     *
1206:.\Generated_Source\PSoC5/UART.c ****     * Summary:
1207:.\Generated_Source\PSoC5/UART.c ****     *  Write a Sequence of bytes on the Transmit line. Data comes from RAM or ROM.
1208:.\Generated_Source\PSoC5/UART.c ****     *
1209:.\Generated_Source\PSoC5/UART.c ****     * Parameters:
1210:.\Generated_Source\PSoC5/UART.c ****     *  string: Address of the memory array residing in RAM or ROM.
1211:.\Generated_Source\PSoC5/UART.c ****     *  byteCount: Number of Bytes to be transmitted.
1212:.\Generated_Source\PSoC5/UART.c ****     *
1213:.\Generated_Source\PSoC5/UART.c ****     * Return:
1214:.\Generated_Source\PSoC5/UART.c ****     *  None.
1215:.\Generated_Source\PSoC5/UART.c ****     *
1216:.\Generated_Source\PSoC5/UART.c ****     * Global Variables:
1217:.\Generated_Source\PSoC5/UART.c ****     *  UART_initVar - checked to identify that the component has been  
1218:.\Generated_Source\PSoC5/UART.c ****     *     initialized.
1219:.\Generated_Source\PSoC5/UART.c ****     *
1220:.\Generated_Source\PSoC5/UART.c ****     * Reentrant:
1221:.\Generated_Source\PSoC5/UART.c ****     *  No.
1222:.\Generated_Source\PSoC5/UART.c ****     *
1223:.\Generated_Source\PSoC5/UART.c ****     *******************************************************************************/
1224:.\Generated_Source\PSoC5/UART.c ****     void UART_PutArray(uint8* string, uint8 byteCount) 
1225:.\Generated_Source\PSoC5/UART.c ****                                                                     
1226:.\Generated_Source\PSoC5/UART.c ****     {
 993              		.loc 1 1226 0
ARM GAS  C:\DOCUME~1\student\LOCALS~1\Temp\ccbLgMpg.s 			page 40


 994              		.cfi_startproc
 995              		@ args = 0, pretend = 0, frame = 8
 996              		@ frame_needed = 1, uses_anonymous_args = 0
 997 0000 80B5     		push	{r7, lr}
 998              	.LCFI58:
 999              		.cfi_def_cfa_offset 8
 1000 0002 82B0     		sub	sp, sp, #8
 1001              	.LCFI59:
 1002              		.cfi_def_cfa_offset 16
 1003 0004 00AF     		add	r7, sp, #0
 1004              		.cfi_offset 14, -4
 1005              		.cfi_offset 7, -8
 1006              	.LCFI60:
 1007              		.cfi_def_cfa_register 7
 1008 0006 7860     		str	r0, [r7, #4]
 1009 0008 0B46     		mov	r3, r1
 1010 000a FB70     		strb	r3, [r7, #3]
1227:.\Generated_Source\PSoC5/UART.c ****         /* If not Initialized then skip this function*/
1228:.\Generated_Source\PSoC5/UART.c ****         if(UART_initVar != 0u)
 1011              		.loc 1 1228 0
 1012 000c 40F20003 		movw	r3, #:lower16:UART_initVar
 1013 0010 C0F20003 		movt	r3, #:upper16:UART_initVar
 1014 0014 1B78     		ldrb	r3, [r3, #0]	@ zero_extendqisi2
 1015 0016 002B     		cmp	r3, #0
 1016 0018 10D0     		beq	.L56
1229:.\Generated_Source\PSoC5/UART.c ****         {
1230:.\Generated_Source\PSoC5/UART.c ****             while(byteCount > 0u)
 1017              		.loc 1 1230 0
 1018 001a 0CE0     		b	.L54
 1019              	.L55:
1231:.\Generated_Source\PSoC5/UART.c ****             {
1232:.\Generated_Source\PSoC5/UART.c ****                 UART_PutChar(*string++);
 1020              		.loc 1 1232 0
 1021 001c 7B68     		ldr	r3, [r7, #4]
 1022 001e 1B78     		ldrb	r3, [r3, #0]	@ zero_extendqisi2
 1023 0020 7A68     		ldr	r2, [r7, #4]
 1024 0022 02F10102 		add	r2, r2, #1
 1025 0026 7A60     		str	r2, [r7, #4]
 1026 0028 1846     		mov	r0, r3
 1027 002a FFF7FEFF 		bl	UART_PutChar
1233:.\Generated_Source\PSoC5/UART.c ****                 byteCount--;
 1028              		.loc 1 1233 0
 1029 002e FB78     		ldrb	r3, [r7, #3]
 1030 0030 03F1FF33 		add	r3, r3, #-1
 1031 0034 FB70     		strb	r3, [r7, #3]
 1032              	.L54:
 1033              		.loc 1 1230 0
 1034 0036 FB78     		ldrb	r3, [r7, #3]	@ zero_extendqisi2
 1035 0038 002B     		cmp	r3, #0
 1036 003a EFD1     		bne	.L55
 1037              	.L56:
1234:.\Generated_Source\PSoC5/UART.c ****             }
1235:.\Generated_Source\PSoC5/UART.c ****         }
1236:.\Generated_Source\PSoC5/UART.c ****     }
 1038              		.loc 1 1236 0
 1039 003c 07F10807 		add	r7, r7, #8
 1040 0040 BD46     		mov	sp, r7
ARM GAS  C:\DOCUME~1\student\LOCALS~1\Temp\ccbLgMpg.s 			page 41


 1041 0042 80BD     		pop	{r7, pc}
 1042              		.cfi_endproc
 1043              	.LFE21:
 1044              		.size	UART_PutArray, .-UART_PutArray
 1045              		.section	.text.UART_PutCRLF,"ax",%progbits
 1046              		.align	2
 1047              		.global	UART_PutCRLF
 1048              		.thumb
 1049              		.thumb_func
 1050              		.type	UART_PutCRLF, %function
 1051              	UART_PutCRLF:
 1052              	.LFB22:
1237:.\Generated_Source\PSoC5/UART.c **** 
1238:.\Generated_Source\PSoC5/UART.c **** 
1239:.\Generated_Source\PSoC5/UART.c ****     /*******************************************************************************
1240:.\Generated_Source\PSoC5/UART.c ****     * Function Name: UART_PutCRLF
1241:.\Generated_Source\PSoC5/UART.c ****     ********************************************************************************
1242:.\Generated_Source\PSoC5/UART.c ****     *
1243:.\Generated_Source\PSoC5/UART.c ****     * Summary:
1244:.\Generated_Source\PSoC5/UART.c ****     *  Write a character and then carriage return and line feed.
1245:.\Generated_Source\PSoC5/UART.c ****     *
1246:.\Generated_Source\PSoC5/UART.c ****     * Parameters:
1247:.\Generated_Source\PSoC5/UART.c ****     *  txDataByte: uint8 Character to send.
1248:.\Generated_Source\PSoC5/UART.c ****     *
1249:.\Generated_Source\PSoC5/UART.c ****     * Return:
1250:.\Generated_Source\PSoC5/UART.c ****     *  None.
1251:.\Generated_Source\PSoC5/UART.c ****     *
1252:.\Generated_Source\PSoC5/UART.c ****     * Global Variables:
1253:.\Generated_Source\PSoC5/UART.c ****     *  UART_initVar - checked to identify that the component has been  
1254:.\Generated_Source\PSoC5/UART.c ****     *     initialized.
1255:.\Generated_Source\PSoC5/UART.c ****     *
1256:.\Generated_Source\PSoC5/UART.c ****     * Reentrant:
1257:.\Generated_Source\PSoC5/UART.c ****     *  No.
1258:.\Generated_Source\PSoC5/UART.c ****     *
1259:.\Generated_Source\PSoC5/UART.c ****     *******************************************************************************/
1260:.\Generated_Source\PSoC5/UART.c ****     void UART_PutCRLF(uint8 txDataByte) 
1261:.\Generated_Source\PSoC5/UART.c ****     {
 1053              		.loc 1 1261 0
 1054              		.cfi_startproc
 1055              		@ args = 0, pretend = 0, frame = 8
 1056              		@ frame_needed = 1, uses_anonymous_args = 0
 1057 0000 80B5     		push	{r7, lr}
 1058              	.LCFI61:
 1059              		.cfi_def_cfa_offset 8
 1060 0002 82B0     		sub	sp, sp, #8
 1061              	.LCFI62:
 1062              		.cfi_def_cfa_offset 16
 1063 0004 00AF     		add	r7, sp, #0
 1064              		.cfi_offset 14, -4
 1065              		.cfi_offset 7, -8
 1066              	.LCFI63:
 1067              		.cfi_def_cfa_register 7
 1068 0006 0346     		mov	r3, r0
 1069 0008 FB71     		strb	r3, [r7, #7]
1262:.\Generated_Source\PSoC5/UART.c ****         /* If not Initialized then skip this function*/
1263:.\Generated_Source\PSoC5/UART.c ****         if(UART_initVar != 0u)
 1070              		.loc 1 1263 0
ARM GAS  C:\DOCUME~1\student\LOCALS~1\Temp\ccbLgMpg.s 			page 42


 1071 000a 40F20003 		movw	r3, #:lower16:UART_initVar
 1072 000e C0F20003 		movt	r3, #:upper16:UART_initVar
 1073 0012 1B78     		ldrb	r3, [r3, #0]	@ zero_extendqisi2
 1074 0014 002B     		cmp	r3, #0
 1075 0016 0BD0     		beq	.L59
1264:.\Generated_Source\PSoC5/UART.c ****         {
1265:.\Generated_Source\PSoC5/UART.c ****             UART_PutChar(txDataByte);
 1076              		.loc 1 1265 0
 1077 0018 FB79     		ldrb	r3, [r7, #7]	@ zero_extendqisi2
 1078 001a 1846     		mov	r0, r3
 1079 001c FFF7FEFF 		bl	UART_PutChar
1266:.\Generated_Source\PSoC5/UART.c ****             UART_PutChar(0x0Du);
 1080              		.loc 1 1266 0
 1081 0020 4FF00D00 		mov	r0, #13
 1082 0024 FFF7FEFF 		bl	UART_PutChar
1267:.\Generated_Source\PSoC5/UART.c ****             UART_PutChar(0x0Au);
 1083              		.loc 1 1267 0
 1084 0028 4FF00A00 		mov	r0, #10
 1085 002c FFF7FEFF 		bl	UART_PutChar
 1086              	.L59:
1268:.\Generated_Source\PSoC5/UART.c ****         }
1269:.\Generated_Source\PSoC5/UART.c ****     }
 1087              		.loc 1 1269 0
 1088 0030 07F10807 		add	r7, r7, #8
 1089 0034 BD46     		mov	sp, r7
 1090 0036 80BD     		pop	{r7, pc}
 1091              		.cfi_endproc
 1092              	.LFE22:
 1093              		.size	UART_PutCRLF, .-UART_PutCRLF
 1094              		.section	.text.UART_GetTxBufferSize,"ax",%progbits
 1095              		.align	2
 1096              		.global	UART_GetTxBufferSize
 1097              		.thumb
 1098              		.thumb_func
 1099              		.type	UART_GetTxBufferSize, %function
 1100              	UART_GetTxBufferSize:
 1101              	.LFB23:
1270:.\Generated_Source\PSoC5/UART.c **** 
1271:.\Generated_Source\PSoC5/UART.c **** 
1272:.\Generated_Source\PSoC5/UART.c ****     /*******************************************************************************
1273:.\Generated_Source\PSoC5/UART.c ****     * Function Name: UART_GetTxBufferSize
1274:.\Generated_Source\PSoC5/UART.c ****     ********************************************************************************
1275:.\Generated_Source\PSoC5/UART.c ****     *
1276:.\Generated_Source\PSoC5/UART.c ****     * Summary:
1277:.\Generated_Source\PSoC5/UART.c ****     *  Determine the amount of space left in the TX buffer and return the count in
1278:.\Generated_Source\PSoC5/UART.c ****     *  bytes
1279:.\Generated_Source\PSoC5/UART.c ****     *
1280:.\Generated_Source\PSoC5/UART.c ****     * Parameters:
1281:.\Generated_Source\PSoC5/UART.c ****     *  None.
1282:.\Generated_Source\PSoC5/UART.c ****     *
1283:.\Generated_Source\PSoC5/UART.c ****     * Return:
1284:.\Generated_Source\PSoC5/UART.c ****     *  Integer count of the number of bytes left in the TX buffer
1285:.\Generated_Source\PSoC5/UART.c ****     *
1286:.\Generated_Source\PSoC5/UART.c ****     * Global Variables:
1287:.\Generated_Source\PSoC5/UART.c ****     *  UART_txBufferWrite - used to calculate left space. 
1288:.\Generated_Source\PSoC5/UART.c ****     *  UART_txBufferRead - used to calculate left space.
1289:.\Generated_Source\PSoC5/UART.c ****     *
ARM GAS  C:\DOCUME~1\student\LOCALS~1\Temp\ccbLgMpg.s 			page 43


1290:.\Generated_Source\PSoC5/UART.c ****     * Reentrant:
1291:.\Generated_Source\PSoC5/UART.c ****     *  No.
1292:.\Generated_Source\PSoC5/UART.c ****     *
1293:.\Generated_Source\PSoC5/UART.c ****     * Theory:
1294:.\Generated_Source\PSoC5/UART.c ****     *  Allows the user to find out how full the TX Buffer is.
1295:.\Generated_Source\PSoC5/UART.c ****     *
1296:.\Generated_Source\PSoC5/UART.c ****     *******************************************************************************/
1297:.\Generated_Source\PSoC5/UART.c ****     uint8 UART_GetTxBufferSize(void) 
1298:.\Generated_Source\PSoC5/UART.c ****                                                             
1299:.\Generated_Source\PSoC5/UART.c ****     {
 1102              		.loc 1 1299 0
 1103              		.cfi_startproc
 1104              		@ args = 0, pretend = 0, frame = 8
 1105              		@ frame_needed = 1, uses_anonymous_args = 0
 1106              		@ link register save eliminated.
 1107 0000 80B4     		push	{r7}
 1108              	.LCFI64:
 1109              		.cfi_def_cfa_offset 4
 1110 0002 83B0     		sub	sp, sp, #12
 1111              	.LCFI65:
 1112              		.cfi_def_cfa_offset 16
 1113 0004 00AF     		add	r7, sp, #0
 1114              		.cfi_offset 7, -4
 1115              	.LCFI66:
 1116              		.cfi_def_cfa_register 7
1300:.\Generated_Source\PSoC5/UART.c ****         uint8 size;
1301:.\Generated_Source\PSoC5/UART.c **** 
1302:.\Generated_Source\PSoC5/UART.c ****         #if(UART_TXBUFFERSIZE > UART_FIFO_LENGTH)
1303:.\Generated_Source\PSoC5/UART.c **** 
1304:.\Generated_Source\PSoC5/UART.c ****             /* Disable Tx interrupt. */
1305:.\Generated_Source\PSoC5/UART.c ****             /* Protect variables that could change on interrupt. */
1306:.\Generated_Source\PSoC5/UART.c ****             #if(UART_TX_INTERRUPT_ENABLED)
1307:.\Generated_Source\PSoC5/UART.c ****                 UART_DisableTxInt();
1308:.\Generated_Source\PSoC5/UART.c ****             #endif /* End UART_TX_INTERRUPT_ENABLED */
1309:.\Generated_Source\PSoC5/UART.c **** 
1310:.\Generated_Source\PSoC5/UART.c ****             if(UART_txBufferRead == UART_txBufferWrite)
1311:.\Generated_Source\PSoC5/UART.c ****             {
1312:.\Generated_Source\PSoC5/UART.c ****                 size = 0u;
1313:.\Generated_Source\PSoC5/UART.c ****             }
1314:.\Generated_Source\PSoC5/UART.c ****             else if(UART_txBufferRead < UART_txBufferWrite)
1315:.\Generated_Source\PSoC5/UART.c ****             {
1316:.\Generated_Source\PSoC5/UART.c ****                 size = (UART_txBufferWrite - UART_txBufferRead);
1317:.\Generated_Source\PSoC5/UART.c ****             }
1318:.\Generated_Source\PSoC5/UART.c ****             else
1319:.\Generated_Source\PSoC5/UART.c ****             {
1320:.\Generated_Source\PSoC5/UART.c ****                 size = (UART_TXBUFFERSIZE - UART_txBufferRead) + UART_txBufferWrite;
1321:.\Generated_Source\PSoC5/UART.c ****             }
1322:.\Generated_Source\PSoC5/UART.c **** 
1323:.\Generated_Source\PSoC5/UART.c ****             /* Enable Tx interrupt. */
1324:.\Generated_Source\PSoC5/UART.c ****             #if(UART_TX_INTERRUPT_ENABLED)
1325:.\Generated_Source\PSoC5/UART.c ****                 UART_EnableTxInt();
1326:.\Generated_Source\PSoC5/UART.c ****             #endif /* End UART_TX_INTERRUPT_ENABLED */
1327:.\Generated_Source\PSoC5/UART.c **** 
1328:.\Generated_Source\PSoC5/UART.c ****         #else /* UART_TXBUFFERSIZE > UART_FIFO_LENGTH */
1329:.\Generated_Source\PSoC5/UART.c **** 
1330:.\Generated_Source\PSoC5/UART.c ****             size = UART_TXSTATUS_REG;
 1117              		.loc 1 1330 0
ARM GAS  C:\DOCUME~1\student\LOCALS~1\Temp\ccbLgMpg.s 			page 44


 1118 0006 46F26E43 		movw	r3, #:lower16:1073767534
 1119 000a C4F20003 		movt	r3, #:upper16:1073767534
 1120 000e 1B78     		ldrb	r3, [r3, #0]
 1121 0010 FB71     		strb	r3, [r7, #7]
1331:.\Generated_Source\PSoC5/UART.c **** 
1332:.\Generated_Source\PSoC5/UART.c ****             /* Is the fifo is full. */
1333:.\Generated_Source\PSoC5/UART.c ****             if(size & UART_TX_STS_FIFO_FULL)
 1122              		.loc 1 1333 0
 1123 0012 FB79     		ldrb	r3, [r7, #7]	@ zero_extendqisi2
 1124 0014 03F00403 		and	r3, r3, #4
 1125 0018 002B     		cmp	r3, #0
 1126 001a 03D0     		beq	.L61
1334:.\Generated_Source\PSoC5/UART.c ****             {
1335:.\Generated_Source\PSoC5/UART.c ****                 size = UART_FIFO_LENGTH;
 1127              		.loc 1 1335 0
 1128 001c 4FF00403 		mov	r3, #4
 1129 0020 FB71     		strb	r3, [r7, #7]
 1130 0022 0BE0     		b	.L62
 1131              	.L61:
1336:.\Generated_Source\PSoC5/UART.c ****             }
1337:.\Generated_Source\PSoC5/UART.c ****             else if(size & UART_TX_STS_FIFO_EMPTY)
 1132              		.loc 1 1337 0
 1133 0024 FB79     		ldrb	r3, [r7, #7]	@ zero_extendqisi2
 1134 0026 03F00203 		and	r3, r3, #2
 1135 002a 002B     		cmp	r3, #0
 1136 002c 03D0     		beq	.L63
1338:.\Generated_Source\PSoC5/UART.c ****             {
1339:.\Generated_Source\PSoC5/UART.c ****                 size = 0u;
 1137              		.loc 1 1339 0
 1138 002e 4FF00003 		mov	r3, #0
 1139 0032 FB71     		strb	r3, [r7, #7]
 1140 0034 02E0     		b	.L62
 1141              	.L63:
1340:.\Generated_Source\PSoC5/UART.c ****             }
1341:.\Generated_Source\PSoC5/UART.c ****             else
1342:.\Generated_Source\PSoC5/UART.c ****             {
1343:.\Generated_Source\PSoC5/UART.c ****                 /* We only know there is data in the fifo. */
1344:.\Generated_Source\PSoC5/UART.c ****                 size = 1u;
 1142              		.loc 1 1344 0
 1143 0036 4FF00103 		mov	r3, #1
 1144 003a FB71     		strb	r3, [r7, #7]
 1145              	.L62:
1345:.\Generated_Source\PSoC5/UART.c ****             }
1346:.\Generated_Source\PSoC5/UART.c **** 
1347:.\Generated_Source\PSoC5/UART.c ****         #endif /* End UART_TXBUFFERSIZE > UART_FIFO_LENGTH */
1348:.\Generated_Source\PSoC5/UART.c **** 
1349:.\Generated_Source\PSoC5/UART.c ****         return(size);
 1146              		.loc 1 1349 0
 1147 003c FB79     		ldrb	r3, [r7, #7]	@ zero_extendqisi2
1350:.\Generated_Source\PSoC5/UART.c ****     }
 1148              		.loc 1 1350 0
 1149 003e 1846     		mov	r0, r3
 1150 0040 07F10C07 		add	r7, r7, #12
 1151 0044 BD46     		mov	sp, r7
 1152 0046 80BC     		pop	{r7}
 1153 0048 7047     		bx	lr
 1154              		.cfi_endproc
ARM GAS  C:\DOCUME~1\student\LOCALS~1\Temp\ccbLgMpg.s 			page 45


 1155              	.LFE23:
 1156              		.size	UART_GetTxBufferSize, .-UART_GetTxBufferSize
 1157 004a 00BF     		.section	.text.UART_ClearTxBuffer,"ax",%progbits
 1158              		.align	2
 1159              		.global	UART_ClearTxBuffer
 1160              		.thumb
 1161              		.thumb_func
 1162              		.type	UART_ClearTxBuffer, %function
 1163              	UART_ClearTxBuffer:
 1164              	.LFB24:
1351:.\Generated_Source\PSoC5/UART.c **** 
1352:.\Generated_Source\PSoC5/UART.c **** 
1353:.\Generated_Source\PSoC5/UART.c ****     /*******************************************************************************
1354:.\Generated_Source\PSoC5/UART.c ****     * Function Name: UART_ClearTxBuffer
1355:.\Generated_Source\PSoC5/UART.c ****     ********************************************************************************
1356:.\Generated_Source\PSoC5/UART.c ****     *
1357:.\Generated_Source\PSoC5/UART.c ****     * Summary:
1358:.\Generated_Source\PSoC5/UART.c ****     *  Clears the TX RAM buffer by setting the read and write pointers both to zero.
1359:.\Generated_Source\PSoC5/UART.c ****     *  Clears the hardware TX FIFO.  Any data present in the FIFO will not be sent.
1360:.\Generated_Source\PSoC5/UART.c ****     *
1361:.\Generated_Source\PSoC5/UART.c ****     * Parameters:
1362:.\Generated_Source\PSoC5/UART.c ****     *  None.
1363:.\Generated_Source\PSoC5/UART.c ****     *
1364:.\Generated_Source\PSoC5/UART.c ****     * Return:
1365:.\Generated_Source\PSoC5/UART.c ****     *  None.
1366:.\Generated_Source\PSoC5/UART.c ****     *
1367:.\Generated_Source\PSoC5/UART.c ****     * Global Variables:
1368:.\Generated_Source\PSoC5/UART.c ****     *  UART_txBufferWrite - cleared to zero. 
1369:.\Generated_Source\PSoC5/UART.c ****     *  UART_txBufferRead - cleared to zero.
1370:.\Generated_Source\PSoC5/UART.c ****     *
1371:.\Generated_Source\PSoC5/UART.c ****     * Reentrant:
1372:.\Generated_Source\PSoC5/UART.c ****     *  No.
1373:.\Generated_Source\PSoC5/UART.c ****     *
1374:.\Generated_Source\PSoC5/UART.c ****     * Theory:
1375:.\Generated_Source\PSoC5/UART.c ****     *  Setting the pointers to zero makes the system believe there is no data to 
1376:.\Generated_Source\PSoC5/UART.c ****     *  read and writing will resume at address 0 overwriting any data that may have
1377:.\Generated_Source\PSoC5/UART.c ****     *  remained in the RAM.
1378:.\Generated_Source\PSoC5/UART.c ****     *
1379:.\Generated_Source\PSoC5/UART.c ****     * Side Effects:
1380:.\Generated_Source\PSoC5/UART.c ****     *  Any received data not read from the RAM buffer will be lost when overwritten.
1381:.\Generated_Source\PSoC5/UART.c ****     *
1382:.\Generated_Source\PSoC5/UART.c ****     *******************************************************************************/
1383:.\Generated_Source\PSoC5/UART.c ****     void UART_ClearTxBuffer(void) 
1384:.\Generated_Source\PSoC5/UART.c ****     {
 1165              		.loc 1 1384 0
 1166              		.cfi_startproc
 1167              		@ args = 0, pretend = 0, frame = 8
 1168              		@ frame_needed = 1, uses_anonymous_args = 0
 1169 0000 80B5     		push	{r7, lr}
 1170              	.LCFI67:
 1171              		.cfi_def_cfa_offset 8
 1172 0002 82B0     		sub	sp, sp, #8
 1173              	.LCFI68:
 1174              		.cfi_def_cfa_offset 16
 1175 0004 00AF     		add	r7, sp, #0
 1176              		.cfi_offset 14, -4
 1177              		.cfi_offset 7, -8
ARM GAS  C:\DOCUME~1\student\LOCALS~1\Temp\ccbLgMpg.s 			page 46


 1178              	.LCFI69:
 1179              		.cfi_def_cfa_register 7
1385:.\Generated_Source\PSoC5/UART.c ****         uint8 enableInterrupts;
1386:.\Generated_Source\PSoC5/UART.c ****         
1387:.\Generated_Source\PSoC5/UART.c ****         /* Enter critical section */
1388:.\Generated_Source\PSoC5/UART.c ****         enableInterrupts = CyEnterCriticalSection();        
 1180              		.loc 1 1388 0
 1181 0006 FFF7FEFF 		bl	CyEnterCriticalSection
 1182 000a 0346     		mov	r3, r0
 1183 000c FB71     		strb	r3, [r7, #7]
1389:.\Generated_Source\PSoC5/UART.c ****         /* clear the HW FIFO */
1390:.\Generated_Source\PSoC5/UART.c ****         UART_TXDATA_AUX_CTL_REG |=  UART_TX_FIFO_CLR;
 1184              		.loc 1 1390 0
 1185 000e 46F29B43 		movw	r3, #:lower16:1073767579
 1186 0012 C4F20003 		movt	r3, #:upper16:1073767579
 1187 0016 46F29B42 		movw	r2, #:lower16:1073767579
 1188 001a C4F20002 		movt	r2, #:upper16:1073767579
 1189 001e 1278     		ldrb	r2, [r2, #0]
 1190 0020 D2B2     		uxtb	r2, r2
 1191 0022 42F00102 		orr	r2, r2, #1
 1192 0026 D2B2     		uxtb	r2, r2
 1193 0028 1A70     		strb	r2, [r3, #0]
1391:.\Generated_Source\PSoC5/UART.c ****         UART_TXDATA_AUX_CTL_REG &= ~UART_TX_FIFO_CLR;
 1194              		.loc 1 1391 0
 1195 002a 46F29B43 		movw	r3, #:lower16:1073767579
 1196 002e C4F20003 		movt	r3, #:upper16:1073767579
 1197 0032 46F29B42 		movw	r2, #:lower16:1073767579
 1198 0036 C4F20002 		movt	r2, #:upper16:1073767579
 1199 003a 1278     		ldrb	r2, [r2, #0]
 1200 003c D2B2     		uxtb	r2, r2
 1201 003e 02F0FE02 		and	r2, r2, #254
 1202 0042 1A70     		strb	r2, [r3, #0]
1392:.\Generated_Source\PSoC5/UART.c ****         /* Exit critical section */
1393:.\Generated_Source\PSoC5/UART.c ****         CyExitCriticalSection(enableInterrupts);
 1203              		.loc 1 1393 0
 1204 0044 FB79     		ldrb	r3, [r7, #7]	@ zero_extendqisi2
 1205 0046 1846     		mov	r0, r3
 1206 0048 FFF7FEFF 		bl	CyExitCriticalSection
1394:.\Generated_Source\PSoC5/UART.c **** 
1395:.\Generated_Source\PSoC5/UART.c ****         #if(UART_TXBUFFERSIZE > UART_FIFO_LENGTH)
1396:.\Generated_Source\PSoC5/UART.c **** 
1397:.\Generated_Source\PSoC5/UART.c ****             /* Disable Tx interrupt. */
1398:.\Generated_Source\PSoC5/UART.c ****             /* Protect variables that could change on interrupt. */
1399:.\Generated_Source\PSoC5/UART.c ****             #if(UART_TX_INTERRUPT_ENABLED)
1400:.\Generated_Source\PSoC5/UART.c ****                 UART_DisableTxInt();
1401:.\Generated_Source\PSoC5/UART.c ****             #endif /* End UART_TX_INTERRUPT_ENABLED */
1402:.\Generated_Source\PSoC5/UART.c **** 
1403:.\Generated_Source\PSoC5/UART.c ****             UART_txBufferRead = 0u;
1404:.\Generated_Source\PSoC5/UART.c ****             UART_txBufferWrite = 0u;
1405:.\Generated_Source\PSoC5/UART.c **** 
1406:.\Generated_Source\PSoC5/UART.c ****             /* Enable Tx interrupt. */
1407:.\Generated_Source\PSoC5/UART.c ****             #if(UART_TX_INTERRUPT_ENABLED)
1408:.\Generated_Source\PSoC5/UART.c ****                 UART_EnableTxInt();
1409:.\Generated_Source\PSoC5/UART.c ****             #endif /* End UART_TX_INTERRUPT_ENABLED */
1410:.\Generated_Source\PSoC5/UART.c **** 
1411:.\Generated_Source\PSoC5/UART.c ****         #endif /* End UART_TXBUFFERSIZE > UART_FIFO_LENGTH */
1412:.\Generated_Source\PSoC5/UART.c ****     }
ARM GAS  C:\DOCUME~1\student\LOCALS~1\Temp\ccbLgMpg.s 			page 47


 1207              		.loc 1 1412 0
 1208 004c 07F10807 		add	r7, r7, #8
 1209 0050 BD46     		mov	sp, r7
 1210 0052 80BD     		pop	{r7, pc}
 1211              		.cfi_endproc
 1212              	.LFE24:
 1213              		.size	UART_ClearTxBuffer, .-UART_ClearTxBuffer
 1214              		.section	.text.UART_SendBreak,"ax",%progbits
 1215              		.align	2
 1216              		.global	UART_SendBreak
 1217              		.thumb
 1218              		.thumb_func
 1219              		.type	UART_SendBreak, %function
 1220              	UART_SendBreak:
 1221              	.LFB25:
1413:.\Generated_Source\PSoC5/UART.c **** 
1414:.\Generated_Source\PSoC5/UART.c **** 
1415:.\Generated_Source\PSoC5/UART.c ****     /*******************************************************************************
1416:.\Generated_Source\PSoC5/UART.c ****     * Function Name: UART_SendBreak
1417:.\Generated_Source\PSoC5/UART.c ****     ********************************************************************************
1418:.\Generated_Source\PSoC5/UART.c ****     *
1419:.\Generated_Source\PSoC5/UART.c ****     * Summary:
1420:.\Generated_Source\PSoC5/UART.c ****     *  Write a Break command to the UART
1421:.\Generated_Source\PSoC5/UART.c ****     *
1422:.\Generated_Source\PSoC5/UART.c ****     * Parameters:
1423:.\Generated_Source\PSoC5/UART.c ****     *  uint8 retMode:  Wait mode,
1424:.\Generated_Source\PSoC5/UART.c ****     *   0 - Initialize registers for Break, sends the Break signal and return 
1425:.\Generated_Source\PSoC5/UART.c ****     *       imediately.
1426:.\Generated_Source\PSoC5/UART.c ****     *   1 - Wait until Break sending is complete, reinitialize registers to normal
1427:.\Generated_Source\PSoC5/UART.c ****     *       transmission mode then return.
1428:.\Generated_Source\PSoC5/UART.c ****     *   2 - Reinitialize registers to normal transmission mode then return.
1429:.\Generated_Source\PSoC5/UART.c ****     *   3 - both steps: 0 and 1
1430:.\Generated_Source\PSoC5/UART.c ****     *       init registers for Break, send Break signal
1431:.\Generated_Source\PSoC5/UART.c ****     *       wait until Break sending is complete, reinit registers to normal
1432:.\Generated_Source\PSoC5/UART.c ****     *       transmission mode then return.
1433:.\Generated_Source\PSoC5/UART.c ****     *
1434:.\Generated_Source\PSoC5/UART.c ****     * Return:
1435:.\Generated_Source\PSoC5/UART.c ****     *  None.
1436:.\Generated_Source\PSoC5/UART.c ****     *
1437:.\Generated_Source\PSoC5/UART.c ****     * Global Variables:
1438:.\Generated_Source\PSoC5/UART.c ****     *  UART_initVar - checked to identify that the component has been  
1439:.\Generated_Source\PSoC5/UART.c ****     *     initialized.
1440:.\Generated_Source\PSoC5/UART.c ****     *  tx_period - static variable, used for keeping TX period configuration.
1441:.\Generated_Source\PSoC5/UART.c ****     *
1442:.\Generated_Source\PSoC5/UART.c ****     * Reentrant:
1443:.\Generated_Source\PSoC5/UART.c ****     *  No.
1444:.\Generated_Source\PSoC5/UART.c ****     *
1445:.\Generated_Source\PSoC5/UART.c ****     * Theory:
1446:.\Generated_Source\PSoC5/UART.c ****     *  SendBreak function initializes registers to send 13-bit break signal. It is
1447:.\Generated_Source\PSoC5/UART.c ****     *  important to return the registers configuration to normal for continue 8-bit
1448:.\Generated_Source\PSoC5/UART.c ****     *  operation.
1449:.\Generated_Source\PSoC5/UART.c ****     *  Trere are 3 variants for this API usage:
1450:.\Generated_Source\PSoC5/UART.c ****     *  1) SendBreak(3) - function will send the Break signal and take care on the
1451:.\Generated_Source\PSoC5/UART.c ****     *     configuration returning. Funcition will block CPU untill transmition 
1452:.\Generated_Source\PSoC5/UART.c ****     *     complete.
1453:.\Generated_Source\PSoC5/UART.c ****     *  2) User may want to use bloking time if UART configured to the low speed 
1454:.\Generated_Source\PSoC5/UART.c ****     *     operation
ARM GAS  C:\DOCUME~1\student\LOCALS~1\Temp\ccbLgMpg.s 			page 48


1455:.\Generated_Source\PSoC5/UART.c ****     *     Emample for this case:
1456:.\Generated_Source\PSoC5/UART.c ****     *     SendBreak(0);     - init Break signal transmition
1457:.\Generated_Source\PSoC5/UART.c ****     *         Add your code here to use CPU time
1458:.\Generated_Source\PSoC5/UART.c ****     *     SendBreak(1);     - complete Break operation
1459:.\Generated_Source\PSoC5/UART.c ****     *  3) Same to 2) but user may want to init and use the interrupt for complete 
1460:.\Generated_Source\PSoC5/UART.c ****     *     break operation.
1461:.\Generated_Source\PSoC5/UART.c ****     *     Example for this case:
1462:.\Generated_Source\PSoC5/UART.c ****     *     Init TX interrupt whith "TX - On TX Complete" parameter
1463:.\Generated_Source\PSoC5/UART.c ****     *     SendBreak(0);     - init Break signal transmition
1464:.\Generated_Source\PSoC5/UART.c ****     *         Add your code here to use CPU time
1465:.\Generated_Source\PSoC5/UART.c ****     *     When interrupt appear with UART_TX_STS_COMPLETE status:
1466:.\Generated_Source\PSoC5/UART.c ****     *     SendBreak(2);     - complete Break operation
1467:.\Generated_Source\PSoC5/UART.c ****     *
1468:.\Generated_Source\PSoC5/UART.c ****     * Side Effects:
1469:.\Generated_Source\PSoC5/UART.c ****     *   Uses static variable to keep registers configuration.
1470:.\Generated_Source\PSoC5/UART.c ****     *
1471:.\Generated_Source\PSoC5/UART.c ****     *******************************************************************************/
1472:.\Generated_Source\PSoC5/UART.c ****     void UART_SendBreak(uint8 retMode) 
1473:.\Generated_Source\PSoC5/UART.c ****     {
 1222              		.loc 1 1473 0
 1223              		.cfi_startproc
 1224              		@ args = 0, pretend = 0, frame = 16
 1225              		@ frame_needed = 1, uses_anonymous_args = 0
 1226              		@ link register save eliminated.
 1227 0000 80B4     		push	{r7}
 1228              	.LCFI70:
 1229              		.cfi_def_cfa_offset 4
 1230 0002 85B0     		sub	sp, sp, #20
 1231              	.LCFI71:
 1232              		.cfi_def_cfa_offset 24
 1233 0004 00AF     		add	r7, sp, #0
 1234              		.cfi_offset 7, -4
 1235              	.LCFI72:
 1236              		.cfi_def_cfa_register 7
 1237 0006 0346     		mov	r3, r0
 1238 0008 FB71     		strb	r3, [r7, #7]
1474:.\Generated_Source\PSoC5/UART.c **** 
1475:.\Generated_Source\PSoC5/UART.c ****         /* If not Initialized then skip this function*/
1476:.\Generated_Source\PSoC5/UART.c ****         if(UART_initVar != 0u)
 1239              		.loc 1 1476 0
 1240 000a 40F20003 		movw	r3, #:lower16:UART_initVar
 1241 000e C0F20003 		movt	r3, #:upper16:UART_initVar
 1242 0012 1B78     		ldrb	r3, [r3, #0]	@ zero_extendqisi2
 1243 0014 002B     		cmp	r3, #0
 1244 0016 4ED0     		beq	.L75
 1245              	.LBB2:
1477:.\Generated_Source\PSoC5/UART.c ****         {
1478:.\Generated_Source\PSoC5/UART.c ****             /*Set the Counter to 13-bits and transmit a 00 byte*/
1479:.\Generated_Source\PSoC5/UART.c ****             /*When that is done then reset the counter value back*/
1480:.\Generated_Source\PSoC5/UART.c ****             uint8 tmpStat;
1481:.\Generated_Source\PSoC5/UART.c **** 
1482:.\Generated_Source\PSoC5/UART.c ****             #if(UART_HD_ENABLED) /* Half Duplex mode*/
1483:.\Generated_Source\PSoC5/UART.c **** 
1484:.\Generated_Source\PSoC5/UART.c ****                 if( (retMode == UART_SEND_BREAK) ||
1485:.\Generated_Source\PSoC5/UART.c ****                     (retMode == UART_SEND_WAIT_REINIT ) )
1486:.\Generated_Source\PSoC5/UART.c ****                 {
1487:.\Generated_Source\PSoC5/UART.c ****                     /* CTRL_HD_SEND_BREAK - sends break bits in HD mode*/
ARM GAS  C:\DOCUME~1\student\LOCALS~1\Temp\ccbLgMpg.s 			page 49


1488:.\Generated_Source\PSoC5/UART.c ****                     UART_WriteControlRegister(UART_ReadControlRegister() |
1489:.\Generated_Source\PSoC5/UART.c ****                                                           UART_CTRL_HD_SEND_BREAK);
1490:.\Generated_Source\PSoC5/UART.c ****                     /* Send zeros*/
1491:.\Generated_Source\PSoC5/UART.c ****                     UART_TXDATA_REG = 0u;
1492:.\Generated_Source\PSoC5/UART.c **** 
1493:.\Generated_Source\PSoC5/UART.c ****                     do /*wait until transmit starts*/
1494:.\Generated_Source\PSoC5/UART.c ****                     {
1495:.\Generated_Source\PSoC5/UART.c ****                         tmpStat = UART_TXSTATUS_REG;
1496:.\Generated_Source\PSoC5/UART.c ****                     }while(tmpStat & UART_TX_STS_FIFO_EMPTY);
1497:.\Generated_Source\PSoC5/UART.c ****                 }
1498:.\Generated_Source\PSoC5/UART.c **** 
1499:.\Generated_Source\PSoC5/UART.c ****                 if( (retMode == UART_WAIT_FOR_COMPLETE_REINIT) ||
1500:.\Generated_Source\PSoC5/UART.c ****                     (retMode == UART_SEND_WAIT_REINIT) )
1501:.\Generated_Source\PSoC5/UART.c ****                 {
1502:.\Generated_Source\PSoC5/UART.c ****                     do /*wait until transmit complete*/
1503:.\Generated_Source\PSoC5/UART.c ****                     {
1504:.\Generated_Source\PSoC5/UART.c ****                         tmpStat = UART_TXSTATUS_REG;
1505:.\Generated_Source\PSoC5/UART.c ****                     }while(~tmpStat & UART_TX_STS_COMPLETE);
1506:.\Generated_Source\PSoC5/UART.c ****                 }
1507:.\Generated_Source\PSoC5/UART.c **** 
1508:.\Generated_Source\PSoC5/UART.c ****                 if( (retMode == UART_WAIT_FOR_COMPLETE_REINIT) ||
1509:.\Generated_Source\PSoC5/UART.c ****                     (retMode == UART_REINIT) ||
1510:.\Generated_Source\PSoC5/UART.c ****                     (retMode == UART_SEND_WAIT_REINIT) )
1511:.\Generated_Source\PSoC5/UART.c ****                 {
1512:.\Generated_Source\PSoC5/UART.c ****                     UART_WriteControlRegister(UART_ReadControlRegister() &
1513:.\Generated_Source\PSoC5/UART.c ****                                                          ~UART_CTRL_HD_SEND_BREAK);
1514:.\Generated_Source\PSoC5/UART.c ****                 }
1515:.\Generated_Source\PSoC5/UART.c **** 
1516:.\Generated_Source\PSoC5/UART.c ****             #else /* UART_HD_ENABLED Full Duplex mode */
1517:.\Generated_Source\PSoC5/UART.c **** 
1518:.\Generated_Source\PSoC5/UART.c ****                 static uint8 tx_period; 
1519:.\Generated_Source\PSoC5/UART.c ****                 
1520:.\Generated_Source\PSoC5/UART.c ****                 if( (retMode == UART_SEND_BREAK) ||
 1246              		.loc 1 1520 0
 1247 0018 FB79     		ldrb	r3, [r7, #7]	@ zero_extendqisi2
 1248 001a 002B     		cmp	r3, #0
 1249 001c 02D0     		beq	.L69
 1250 001e FB79     		ldrb	r3, [r7, #7]	@ zero_extendqisi2
 1251 0020 032B     		cmp	r3, #3
 1252 0022 23D1     		bne	.L70
 1253              	.L69:
1521:.\Generated_Source\PSoC5/UART.c ****                     (retMode == UART_SEND_WAIT_REINIT) )
1522:.\Generated_Source\PSoC5/UART.c ****                 {
1523:.\Generated_Source\PSoC5/UART.c ****                     /* CTRL_HD_SEND_BREAK - skip to send parity bit @ Break signal in Full Duplex m
1524:.\Generated_Source\PSoC5/UART.c ****                     if( (UART_PARITY_TYPE != UART__B_UART__NONE_REVB) ||
1525:.\Generated_Source\PSoC5/UART.c ****                          UART_PARITY_TYPE_SW )
1526:.\Generated_Source\PSoC5/UART.c ****                     {
1527:.\Generated_Source\PSoC5/UART.c ****                         UART_WriteControlRegister(UART_ReadControlRegister() |
1528:.\Generated_Source\PSoC5/UART.c ****                                                               UART_CTRL_HD_SEND_BREAK);
1529:.\Generated_Source\PSoC5/UART.c ****                     }                                                          
1530:.\Generated_Source\PSoC5/UART.c **** 
1531:.\Generated_Source\PSoC5/UART.c ****                     #if(UART_TXCLKGEN_DP)
1532:.\Generated_Source\PSoC5/UART.c ****                         tx_period = UART_TXBITCLKTX_COMPLETE_REG;
 1254              		.loc 1 1532 0
 1255 0024 46F23A43 		movw	r3, #:lower16:1073767482
 1256 0028 C4F20003 		movt	r3, #:upper16:1073767482
 1257 002c 1B78     		ldrb	r3, [r3, #0]
ARM GAS  C:\DOCUME~1\student\LOCALS~1\Temp\ccbLgMpg.s 			page 50


 1258 002e DAB2     		uxtb	r2, r3
 1259 0030 40F20003 		movw	r3, #:lower16:tx_period.2257
 1260 0034 C0F20003 		movt	r3, #:upper16:tx_period.2257
 1261 0038 1A70     		strb	r2, [r3, #0]
1533:.\Generated_Source\PSoC5/UART.c ****                         UART_TXBITCLKTX_COMPLETE_REG = UART_TXBITCTR_BREAKBITS;
 1262              		.loc 1 1533 0
 1263 003a 46F23A43 		movw	r3, #:lower16:1073767482
 1264 003e C4F20003 		movt	r3, #:upper16:1073767482
 1265 0042 4FF06702 		mov	r2, #103
 1266 0046 1A70     		strb	r2, [r3, #0]
1534:.\Generated_Source\PSoC5/UART.c ****                     #else
1535:.\Generated_Source\PSoC5/UART.c ****                         tx_period = UART_TXBITCTR_PERIOD_REG;
1536:.\Generated_Source\PSoC5/UART.c ****                         UART_TXBITCTR_PERIOD_REG = UART_TXBITCTR_BREAKBITS8X;
1537:.\Generated_Source\PSoC5/UART.c ****                     #endif /* End UART_TXCLKGEN_DP */
1538:.\Generated_Source\PSoC5/UART.c **** 
1539:.\Generated_Source\PSoC5/UART.c ****                     /* Send zeros*/
1540:.\Generated_Source\PSoC5/UART.c ****                     UART_TXDATA_REG = 0u;
 1267              		.loc 1 1540 0
 1268 0048 46F24B43 		movw	r3, #:lower16:1073767499
 1269 004c C4F20003 		movt	r3, #:upper16:1073767499
 1270 0050 4FF00002 		mov	r2, #0
 1271 0054 1A70     		strb	r2, [r3, #0]
 1272              	.L71:
1541:.\Generated_Source\PSoC5/UART.c **** 
1542:.\Generated_Source\PSoC5/UART.c ****                     do /*wait until transmit starts*/
1543:.\Generated_Source\PSoC5/UART.c ****                     {
1544:.\Generated_Source\PSoC5/UART.c ****                         tmpStat = UART_TXSTATUS_REG;
 1273              		.loc 1 1544 0
 1274 0056 46F26E43 		movw	r3, #:lower16:1073767534
 1275 005a C4F20003 		movt	r3, #:upper16:1073767534
 1276 005e 1B78     		ldrb	r3, [r3, #0]
 1277 0060 FB73     		strb	r3, [r7, #15]
1545:.\Generated_Source\PSoC5/UART.c ****                     }while(tmpStat & UART_TX_STS_FIFO_EMPTY);
 1278              		.loc 1 1545 0
 1279 0062 FB7B     		ldrb	r3, [r7, #15]	@ zero_extendqisi2
 1280 0064 03F00203 		and	r3, r3, #2
 1281 0068 002B     		cmp	r3, #0
 1282 006a F4D1     		bne	.L71
 1283              	.L70:
1546:.\Generated_Source\PSoC5/UART.c ****                 }
1547:.\Generated_Source\PSoC5/UART.c **** 
1548:.\Generated_Source\PSoC5/UART.c ****                 if( (retMode == UART_WAIT_FOR_COMPLETE_REINIT) ||
 1284              		.loc 1 1548 0
 1285 006c FB79     		ldrb	r3, [r7, #7]	@ zero_extendqisi2
 1286 006e 012B     		cmp	r3, #1
 1287 0070 02D0     		beq	.L72
 1288 0072 FB79     		ldrb	r3, [r7, #7]	@ zero_extendqisi2
 1289 0074 032B     		cmp	r3, #3
 1290 0076 0AD1     		bne	.L73
 1291              	.L72:
1549:.\Generated_Source\PSoC5/UART.c ****                     (retMode == UART_SEND_WAIT_REINIT) )
1550:.\Generated_Source\PSoC5/UART.c ****                 {
1551:.\Generated_Source\PSoC5/UART.c ****                     do /*wait until transmit complete*/
1552:.\Generated_Source\PSoC5/UART.c ****                     {
1553:.\Generated_Source\PSoC5/UART.c ****                         tmpStat = UART_TXSTATUS_REG;
 1292              		.loc 1 1553 0
 1293 0078 46F26E43 		movw	r3, #:lower16:1073767534
ARM GAS  C:\DOCUME~1\student\LOCALS~1\Temp\ccbLgMpg.s 			page 51


 1294 007c C4F20003 		movt	r3, #:upper16:1073767534
 1295 0080 1B78     		ldrb	r3, [r3, #0]
 1296 0082 FB73     		strb	r3, [r7, #15]
1554:.\Generated_Source\PSoC5/UART.c ****                     }while(~tmpStat & UART_TX_STS_COMPLETE);
 1297              		.loc 1 1554 0
 1298 0084 FB7B     		ldrb	r3, [r7, #15]	@ zero_extendqisi2
 1299 0086 03F00103 		and	r3, r3, #1
 1300 008a 002B     		cmp	r3, #0
 1301 008c F4D0     		beq	.L72
 1302              	.L73:
1555:.\Generated_Source\PSoC5/UART.c ****                 }
1556:.\Generated_Source\PSoC5/UART.c **** 
1557:.\Generated_Source\PSoC5/UART.c ****                 if( (retMode == UART_WAIT_FOR_COMPLETE_REINIT) ||
 1303              		.loc 1 1557 0
 1304 008e FB79     		ldrb	r3, [r7, #7]	@ zero_extendqisi2
 1305 0090 012B     		cmp	r3, #1
 1306 0092 05D0     		beq	.L74
 1307 0094 FB79     		ldrb	r3, [r7, #7]	@ zero_extendqisi2
 1308 0096 022B     		cmp	r3, #2
 1309 0098 02D0     		beq	.L74
 1310 009a FB79     		ldrb	r3, [r7, #7]	@ zero_extendqisi2
 1311 009c 032B     		cmp	r3, #3
 1312 009e 0AD1     		bne	.L75
 1313              	.L74:
1558:.\Generated_Source\PSoC5/UART.c ****                     (retMode == UART_REINIT) ||
1559:.\Generated_Source\PSoC5/UART.c ****                     (retMode == UART_SEND_WAIT_REINIT) )
1560:.\Generated_Source\PSoC5/UART.c ****                 {
1561:.\Generated_Source\PSoC5/UART.c **** 
1562:.\Generated_Source\PSoC5/UART.c ****                     #if(UART_TXCLKGEN_DP)
1563:.\Generated_Source\PSoC5/UART.c ****                         UART_TXBITCLKTX_COMPLETE_REG = tx_period;
 1314              		.loc 1 1563 0
 1315 00a0 46F23A43 		movw	r3, #:lower16:1073767482
 1316 00a4 C4F20003 		movt	r3, #:upper16:1073767482
 1317 00a8 40F20002 		movw	r2, #:lower16:tx_period.2257
 1318 00ac C0F20002 		movt	r2, #:upper16:tx_period.2257
 1319 00b0 1278     		ldrb	r2, [r2, #0]	@ zero_extendqisi2
 1320 00b2 1A70     		strb	r2, [r3, #0]
1564:.\Generated_Source\PSoC5/UART.c ****                     #else
1565:.\Generated_Source\PSoC5/UART.c ****                         UART_TXBITCTR_PERIOD_REG = tx_period;
1566:.\Generated_Source\PSoC5/UART.c ****                     #endif /* End UART_TXCLKGEN_DP */
1567:.\Generated_Source\PSoC5/UART.c **** 
1568:.\Generated_Source\PSoC5/UART.c ****                     if( (UART_PARITY_TYPE != UART__B_UART__NONE_REVB) || 
 1321              		.loc 1 1568 0
 1322 00b4 00BF     		nop
 1323              	.L75:
 1324              	.LBE2:
1569:.\Generated_Source\PSoC5/UART.c ****                          UART_PARITY_TYPE_SW )
1570:.\Generated_Source\PSoC5/UART.c ****                     {
1571:.\Generated_Source\PSoC5/UART.c ****                         UART_WriteControlRegister(UART_ReadControlRegister() &
1572:.\Generated_Source\PSoC5/UART.c ****                                                              ~UART_CTRL_HD_SEND_BREAK);
1573:.\Generated_Source\PSoC5/UART.c ****                     }                                     
1574:.\Generated_Source\PSoC5/UART.c ****                 }
1575:.\Generated_Source\PSoC5/UART.c ****             #endif    /* End UART_HD_ENABLED */
1576:.\Generated_Source\PSoC5/UART.c ****         }
1577:.\Generated_Source\PSoC5/UART.c ****     }
 1325              		.loc 1 1577 0
 1326 00b6 07F11407 		add	r7, r7, #20
ARM GAS  C:\DOCUME~1\student\LOCALS~1\Temp\ccbLgMpg.s 			page 52


 1327 00ba BD46     		mov	sp, r7
 1328 00bc 80BC     		pop	{r7}
 1329 00be 7047     		bx	lr
 1330              		.cfi_endproc
 1331              	.LFE25:
 1332              		.size	UART_SendBreak, .-UART_SendBreak
 1333              		.section	.text.UART_SetTxAddressMode,"ax",%progbits
 1334              		.align	2
 1335              		.global	UART_SetTxAddressMode
 1336              		.thumb
 1337              		.thumb_func
 1338              		.type	UART_SetTxAddressMode, %function
 1339              	UART_SetTxAddressMode:
 1340              	.LFB26:
1578:.\Generated_Source\PSoC5/UART.c **** 
1579:.\Generated_Source\PSoC5/UART.c **** 
1580:.\Generated_Source\PSoC5/UART.c ****     /*******************************************************************************
1581:.\Generated_Source\PSoC5/UART.c ****     * Function Name: UART_SetTxAddressMode
1582:.\Generated_Source\PSoC5/UART.c ****     ********************************************************************************
1583:.\Generated_Source\PSoC5/UART.c ****     *
1584:.\Generated_Source\PSoC5/UART.c ****     * Summary:
1585:.\Generated_Source\PSoC5/UART.c ****     *  Set the transmit addressing mode
1586:.\Generated_Source\PSoC5/UART.c ****     *
1587:.\Generated_Source\PSoC5/UART.c ****     * Parameters:
1588:.\Generated_Source\PSoC5/UART.c ****     *  addressMode: 0 -> Space
1589:.\Generated_Source\PSoC5/UART.c ****     *               1 -> Mark
1590:.\Generated_Source\PSoC5/UART.c ****     *
1591:.\Generated_Source\PSoC5/UART.c ****     * Return:
1592:.\Generated_Source\PSoC5/UART.c ****     *  None.
1593:.\Generated_Source\PSoC5/UART.c ****     *
1594:.\Generated_Source\PSoC5/UART.c ****     *******************************************************************************/
1595:.\Generated_Source\PSoC5/UART.c ****     void UART_SetTxAddressMode(uint8 addressMode) 
1596:.\Generated_Source\PSoC5/UART.c ****     {
 1341              		.loc 1 1596 0
 1342              		.cfi_startproc
 1343              		@ args = 0, pretend = 0, frame = 8
 1344              		@ frame_needed = 1, uses_anonymous_args = 0
 1345 0000 80B5     		push	{r7, lr}
 1346              	.LCFI73:
 1347              		.cfi_def_cfa_offset 8
 1348 0002 82B0     		sub	sp, sp, #8
 1349              	.LCFI74:
 1350              		.cfi_def_cfa_offset 16
 1351 0004 00AF     		add	r7, sp, #0
 1352              		.cfi_offset 14, -4
 1353              		.cfi_offset 7, -8
 1354              	.LCFI75:
 1355              		.cfi_def_cfa_register 7
 1356 0006 0346     		mov	r3, r0
 1357 0008 FB71     		strb	r3, [r7, #7]
1597:.\Generated_Source\PSoC5/UART.c ****         /* Mark/Space sending enable*/
1598:.\Generated_Source\PSoC5/UART.c ****         if(addressMode != 0)
 1358              		.loc 1 1598 0
 1359 000a FB79     		ldrb	r3, [r7, #7]	@ zero_extendqisi2
 1360 000c 002B     		cmp	r3, #0
 1361 000e 09D0     		beq	.L77
1599:.\Generated_Source\PSoC5/UART.c ****         {
ARM GAS  C:\DOCUME~1\student\LOCALS~1\Temp\ccbLgMpg.s 			page 53


1600:.\Generated_Source\PSoC5/UART.c ****             UART_WriteControlRegister(UART_ReadControlRegister() | UART_CTRL_MARK);
 1362              		.loc 1 1600 0
 1363 0010 FFF7FEFF 		bl	UART_ReadControlRegister
 1364 0014 0346     		mov	r3, r0
 1365 0016 43F00403 		orr	r3, r3, #4
 1366 001a DBB2     		uxtb	r3, r3
 1367 001c 1846     		mov	r0, r3
 1368 001e FFF7FEFF 		bl	UART_WriteControlRegister
 1369 0022 07E0     		b	.L79
 1370              	.L77:
1601:.\Generated_Source\PSoC5/UART.c ****         }
1602:.\Generated_Source\PSoC5/UART.c ****         else
1603:.\Generated_Source\PSoC5/UART.c ****         {
1604:.\Generated_Source\PSoC5/UART.c ****             UART_WriteControlRegister(UART_ReadControlRegister() & ~UART_CTRL_MARK);
 1371              		.loc 1 1604 0
 1372 0024 FFF7FEFF 		bl	UART_ReadControlRegister
 1373 0028 0346     		mov	r3, r0
 1374 002a 03F0FB03 		and	r3, r3, #251
 1375 002e 1846     		mov	r0, r3
 1376 0030 FFF7FEFF 		bl	UART_WriteControlRegister
 1377              	.L79:
1605:.\Generated_Source\PSoC5/UART.c ****         }
1606:.\Generated_Source\PSoC5/UART.c ****     }
 1378              		.loc 1 1606 0
 1379 0034 07F10807 		add	r7, r7, #8
 1380 0038 BD46     		mov	sp, r7
 1381 003a 80BD     		pop	{r7, pc}
 1382              		.cfi_endproc
 1383              	.LFE26:
 1384              		.size	UART_SetTxAddressMode, .-UART_SetTxAddressMode
 1385              		.bss
 1386              	tx_period.2257:
 1387 0001 00       		.space	1
 1388              		.text
 1389              	.Letext0: